(imatplotlib.font_manager
FontManager
p1
(dp2
S'ttffiles'
p3
(lp4
VC:\u005CWindows\u005CFonts\u005Ccour.ttf
p5
aVc:\u005Cwindows\u005Cfonts\u005Cftltlt.ttf
p6
aVC:\u005CWindows\u005CFonts\u005Cseguisbi.ttf
p7
aVC:\u005CWindows\u005CFonts\u005CSTENCIL.TTF
p8
aVc:\u005Cwindows\u005Cfonts\u005Ccambriab.ttf
p9
aVC:\u005CWindows\u005CFonts\u005Cpalabi.ttf
p10
aVC:\u005CWindows\u005CFonts\u005Ctaileb.ttf
p11
aVc:\u005Cwindows\u005Cfonts\u005Ctrebucbd.ttf
p12
aVc:\u005Cwindows\u005Cfonts\u005Cbelli.ttf
p13
aVc:\u005Cwindows\u005Cfonts\u005Cbod_blai.ttf
p14
aVC:\u005CWindows\u005CFonts\u005CCOPRGTB.TTF
p15
aVC:\u005CWindows\u005CFonts\u005CELEPHNTI.TTF
p16
aVC:\u005CWindows\u005CFonts\u005Cmalgunsl.ttf
p17
aVC:\u005CWindows\u005CFonts\u005Cseguibli.ttf
p18
aVC:\u005CWindows\u005CFonts\u005Cjavatext.ttf
p19
aVc:\u005Cwindows\u005Cfonts\u005Ckeysightsansbold.ttf
p20
aVc:\u005Cwindows\u005Cfonts\u005Csimkai.ttf
p21
aVC:\u005CWindows\u005CFonts\u005CMSUIGHUR.TTF
p22
aVc:\u005Cwindows\u005Cfonts\u005Ctaileb.ttf
p23
aVc:\u005Cwindows\u005Cfonts\u005Cfradm.ttf
p24
aVc:\u005Cwindows\u005Cfonts\u005Ctrebucbi.ttf
p25
aVc:\u005Cwindows\u005Cfonts\u005Cmtcorsva.ttf
p26
aVc:\u005Cwindows\u005Cfonts\u005Csegoeuiz.ttf
p27
aVc:\u005Cwindows\u005Cfonts\u005Cbod_cr.ttf
p28
aVc:\u005Cwindows\u005Cfonts\u005Cbod_bi.ttf
p29
aVc:\u005Cwindows\u005Cfonts\u005Cgili____.ttf
p30
aVc:\u005Cwindows\u005Cfonts\u005Cseguibli.ttf
p31
aVC:\u005CWindows\u005CFonts\u005Cmalgunbd.ttf
p32
aVc:\u005Cwindows\u005Cfonts\u005Cimprisha.ttf
p33
aVC:\u005CWindows\u005CFonts\u005CSIMLI.TTF
p34
aVc:\u005Cwindows\u005Cfonts\u005Cmtextra.ttf
p35
aVC:\u005CWindows\u005CFonts\u005CCURLZ___.TTF
p36
aVc:\u005Cwindows\u005Cfonts\u005Cariali.ttf
p37
aVc:\u005Cwindows\u005Cfonts\u005Ctcm_____.ttf
p38
aVc:\u005Cwindows\u005Cfonts\u005Cmagnetob.ttf
p39
aVc:\u005Cwindows\u005Cfonts\u005Ctccb____.ttf
p40
aVC:\u005CWindows\u005CFonts\u005CKeysightSansCondensed.ttf
p41
aVc:\u005Cwindows\u005Cfonts\u005Cseguisb.ttf
p42
aVC:\u005CWindows\u005CFonts\u005CFRAHV.TTF
p43
aVC:\u005CWindows\u005CFonts\u005Ccalibril.ttf
p44
aVC:\u005CWindows\u005CFonts\u005CHTOWERTI.TTF
p45
aVC:\u005CWindows\u005CFonts\u005Cgeorgiai.ttf
p46
aVC:\u005CWindows\u005CFonts\u005CBOD_I.TTF
p47
aVC:\u005CWindows\u005CFonts\u005Csegoeuib.ttf
p48
aVC:\u005CWindows\u005CFonts\u005CONYX.TTF
p49
aVc:\u005Cwindows\u005Cfonts\u005Ckeysightsansbolditalic.ttf
p50
aVC:\u005CWindows\u005CFonts\u005CLTYPEO.TTF
p51
aVC:\u005CWindows\u005CFonts\u005Chimalaya.ttf
p52
aVc:\u005Cwindows\u005Cfonts\u005Ctahomabd.ttf
p53
aVc:\u005Cwindows\u005Cfonts\u005Csegoeicons.ttf
p54
aVC:\u005CWindows\u005CFonts\u005Ccalibrib.ttf
p55
aVC:\u005CWindows\u005CFonts\u005Cebrima.ttf
p56
aVc:\u005Cwindows\u005Cfonts\u005Ccalifi.ttf
p57
aVc:\u005Cwindows\u005Cfonts\u005Ckunstler.ttf
p58
aVC:\u005CWindows\u005CFonts\u005Cseguihis.ttf
p59
aVc:\u005Cwindows\u005Cfonts\u005Cconsola.ttf
p60
aVc:\u005Cwindows\u005Cfonts\u005Carialnb.ttf
p61
aVc:\u005Cwindows\u005Cfonts\u005Carialbd.ttf
p62
aVC:\u005CWindows\u005CFonts\u005CSTXINGKA.TTF
p63
aVC:\u005CWindows\u005CFonts\u005CLeelawUI.ttf
p64
aVc:\u005Cwindows\u005Cfonts\u005Cverdanaz.ttf
p65
aVc:\u005Cwindows\u005Cfonts\u005Clfaxd.ttf
p66
aVC:\u005CWindows\u005CFonts\u005Ccambriaz.ttf
p67
aVC:\u005CWindows\u005CFonts\u005Cconstanz.ttf
p68
aVc:\u005Cwindows\u005Cfonts\u005Cmaian.ttf
p69
aVc:\u005Cwindows\u005Cfonts\u005Cfrabkit.ttf
p70
aVC:\u005CWindows\u005CFonts\u005Csegoeuii.ttf
p71
aVC:\u005CWindows\u005CFonts\u005Cmvboli.ttf
p72
aVc:\u005Cwindows\u005Cfonts\u005Conyx.ttf
p73
aVC:\u005CWindows\u005CFonts\u005CLTYPEB.TTF
p74
aVC:\u005CWindows\u005CFonts\u005CNirmalaS.ttf
p75
aVc:\u005Cwindows\u005Cfonts\u005Cantquabi.ttf
p76
aVC:\u005CWindows\u005CFonts\u005CTCMI____.TTF
p77
aVC:\u005CWindows\u005CFonts\u005CCandarali.ttf
p78
aVC:\u005CWindows\u005CFonts\u005CLSANS.TTF
p79
aVC:\u005CWindows\u005CFonts\u005Ccomici.ttf
p80
aVC:\u005CWindows\u005CFonts\u005Cmarlett.ttf
p81
aVc:\u005Cwindows\u005Cfonts\u005Ccorbelb.ttf
p82
aVc:\u005Cwindows\u005Cfonts\u005Ccalifb.ttf
p83
aVC:\u005CWindows\u005CFonts\u005CFRABK.TTF
p84
aVc:\u005Cwindows\u005Cfonts\u005Cinfroman.ttf
p85
aVc:\u005Cwindows\u005Cfonts\u005Cphagspa.ttf
p86
aVc:\u005Cwindows\u005Cfonts\u005Cagencyb.ttf
p87
aVC:\u005CWindows\u005CFonts\u005CARLRDBD.TTF
p88
aVc:\u005Cwindows\u005Cfonts\u005Cnirmala.ttf
p89
aVc:\u005Cwindows\u005Cfonts\u005Ccoopbl.ttf
p90
aVc:\u005Cwindows\u005Cfonts\u005Cseguiemj.ttf
p91
aVc:\u005Cwindows\u005Cfonts\u005Cfzytk.ttf
p92
aVc:\u005Cwindows\u005Cfonts\u005Cltypebo.ttf
p93
aVC:\u005CWindows\u005CFonts\u005Ccalibrii.ttf
p94
aVc:\u005Cwindows\u005Cfonts\u005Cstkaiti.ttf
p95
aVc:\u005Cwindows\u005Cfonts\u005Cbahnschrift.ttf
p96
aVc:\u005Cwindows\u005Cfonts\u005Carlrdbd.ttf
p97
aVC:\u005CWindows\u005CFonts\u005Cframdit.ttf
p98
aVC:\u005CWindows\u005CFonts\u005CFTLTLT.TTF
p99
aVc:\u005Cwindows\u005Cfonts\u005Cmod20.ttf
p100
aVc:\u005Cwindows\u005Cfonts\u005Cschlbkbi.ttf
p101
aVC:\u005CWindows\u005CFonts\u005CKeysightSansLight.ttf
p102
aVc:\u005Cwindows\u005Cfonts\u005Cocraext.ttf
p103
aVC:\u005CWindows\u005CFonts\u005CKeysightSansLightCondItalic.ttf
p104
aVc:\u005Cwindows\u005Cfonts\u005Csimyou.ttf
p105
aVC:\u005CWindows\u005CFonts\u005CSTXIHEI.TTF
p106
aVC:\u005CWindows\u005CFonts\u005CGOUDOSB.TTF
p107
aVc:\u005Cwindows\u005Cfonts\u005Clsansi.ttf
p108
aVC:\u005CWindows\u005CFonts\u005CMSUIGHUB.TTF
p109
aVc:\u005Cwindows\u005Cfonts\u005Cerasmd.ttf
p110
aVc:\u005Cwindows\u005Cfonts\u005Cverdanai.ttf
p111
aVC:\u005CWindows\u005CFonts\u005CJOKERMAN.TTF
p112
aVC:\u005CWindows\u005CFonts\u005Cconstanb.ttf
p113
aVc:\u005Cwindows\u005Cfonts\u005Cfradmit.ttf
p114
aVC:\u005CWindows\u005CFonts\u005CWINGDNG2.TTF
p115
aVC:\u005CWindows\u005CFonts\u005CBRITANIC.TTF
p116
aVc:\u005Cwindows\u005Cfonts\u005Cgeorgiaz.ttf
p117
aVC:\u005CWindows\u005CFonts\u005CBOD_BLAI.TTF
p118
aVC:\u005CWindows\u005CFonts\u005CLBRITEI.TTF
p119
aVc:\u005Cwindows\u005Cfonts\u005Csylfaen.ttf
p120
aVc:\u005Cwindows\u005Cfonts\u005Croccb___.ttf
p121
aVc:\u005Cwindows\u005Cfonts\u005Ckeysightsansitalic.ttf
p122
aVC:\u005CWindows\u005CFonts\u005Ccalibriz.ttf
p123
aVC:\u005CWindows\u005CFonts\u005Ctimesbd.ttf
p124
aVC:\u005CWindows\u005CFonts\u005CSansSerifCollection.ttf
p125
aVC:\u005CWindows\u005CFonts\u005CERASMD.TTF
p126
aVc:\u005Cwindows\u005Cfonts\u005Cnirmalas.ttf
p127
aVC:\u005CWindows\u005CFonts\u005CSTKAITI.TTF
p128
aVc:\u005Cwindows\u005Cfonts\u005Cschlbki.ttf
p129
aVC:\u005CWindows\u005CFonts\u005CBKANT.TTF
p130
aVC:\u005CWindows\u005CFonts\u005CLFAXD.TTF
p131
aVC:\u005CWindows\u005CFonts\u005CGIGI.TTF
p132
aVc:\u005Cwindows\u005Cfonts\u005Ccambriai.ttf
p133
aVC:\u005CWindows\u005CFonts\u005CARIALN.TTF
p134
aVc:\u005Cwindows\u005Cfonts\u005Csegoeui.ttf
p135
aVc:\u005Cwindows\u005Cfonts\u005Cgadugi.ttf
p136
aVC:\u005CWindows\u005CFonts\u005CFRADMCN.TTF
p137
aVc:\u005Cwindows\u005Cfonts\u005Cdubai-bold.ttf
p138
aVC:\u005CWindows\u005CFonts\u005CKeysightSans.ttf
p139
aVC:\u005CWindows\u005CFonts\u005CANTQUABI.TTF
p140
aVC:\u005CWindows\u005CFonts\u005Ctaile.ttf
p141
aVC:\u005CWindows\u005CFonts\u005CSTLITI.TTF
p142
aVC:\u005CWindows\u005CFonts\u005CSCHLBKBI.TTF
p143
aVC:\u005CWindows\u005CFonts\u005CBERNHC.TTF
p144
aVc:\u005Cwindows\u005Cfonts\u005Cbookosi.ttf
p145
aVC:\u005CWindows\u005CFonts\u005CKUNSTLER.TTF
p146
aVc:\u005Cwindows\u005Cfonts\u005Cglecb.ttf
p147
aVC:\u005CWindows\u005CFonts\u005CCHILLER.TTF
p148
aVc:\u005Cwindows\u005Cfonts\u005Ckeysightsans.ttf
p149
aVC:\u005CWindows\u005CFonts\u005CSegoeIcons.ttf
p150
aVC:\u005CWindows\u005CFonts\u005Cframd.ttf
p151
aVC:\u005CWindows\u005CFonts\u005CLSANSI.TTF
p152
aVc:\u005Cwindows\u005Cfonts\u005Ctaile.ttf
p153
aVc:\u005Cwindows\u005Cfonts\u005Ccalibri.ttf
p154
aVC:\u005CWindows\u005CFonts\u005CFELIXTI.TTF
p155
aVC:\u005CWindows\u005CFonts\u005CLEELAWAD.TTF
p156
aVC:\u005CWindows\u005CFonts\u005Cimpact.ttf
p157
aVc:\u005Cwindows\u005Cfonts\u005Ccentaur.ttf
p158
aVC:\u005CWindows\u005CFonts\u005CITCEDSCR.TTF
p159
aVC:\u005CWindows\u005CFonts\u005CBROADW.TTF
p160
aVc:\u005Cwindows\u005Cfonts\u005Cstsong.ttf
p161
aVC:\u005CWindows\u005CFonts\u005CCOLONNA.TTF
p162
aVC:\u005CWindows\u005CFonts\u005CGILB____.TTF
p163
aVC:\u005CWindows\u005CFonts\u005Cwingding.ttf
p164
aVc:\u005Cwindows\u005Cfonts\u005Ccorbelli.ttf
p165
aVc:\u005Cwindows\u005Cfonts\u005Clucon.ttf
p166
aVc:\u005Cwindows\u005Cfonts\u005Cseguisbi.ttf
p167
aVC:\u005CWindows\u005CFonts\u005CCALISTBI.TTF
p168
aVc:\u005Cwindows\u005Cfonts\u005Cbernhc.ttf
p169
aVC:\u005CWindows\u005CFonts\u005Cl_10646.ttf
p170
aVc:\u005Cwindows\u005Cfonts\u005Ccastelar.ttf
p171
aVC:\u005CWindows\u005CFonts\u005CANTQUAI.TTF
p172
aVC:\u005CWindows\u005CFonts\u005CSCRIPTBL.TTF
p173
aVC:\u005CWindows\u005CFonts\u005CBRLNSDB.TTF
p174
aVc:\u005Cwindows\u005Cfonts\u005Cebrimabd.ttf
p175
aVC:\u005CWindows\u005CFonts\u005Csegoepr.ttf
p176
aVC:\u005CWindows\u005CFonts\u005Cmicross.ttf
p177
aVc:\u005Cwindows\u005Cfonts\u005Cgillubcd.ttf
p178
aVC:\u005CWindows\u005CFonts\u005CWINGDNG3.TTF
p179
aVC:\u005CWindows\u005CFonts\u005CGILBI___.TTF
p180
aVC:\u005CWindows\u005CFonts\u005CPALSCRI.TTF
p181
aVC:\u005CWindows\u005CFonts\u005Csegoeprb.ttf
p182
aVc:\u005Cwindows\u005Cfonts\u005Cperi____.ttf
p183
aVc:\u005Cwindows\u005Cfonts\u005Ccoprgtl.ttf
p184
aVc:\u005Cwindows\u005Cfonts\u005Ctcmi____.ttf
p185
aVC:\u005CWindows\u005CFonts\u005Cverdanai.ttf
p186
aVc:\u005Cwindows\u005Cfonts\u005Csegoepr.ttf
p187
aVc:\u005Cwindows\u005Cfonts\u005Cmicross.ttf
p188
aVc:\u005Cwindows\u005Cfonts\u005Ctimes.ttf
p189
aVc:\u005Cwindows\u005Cfonts\u005Cwingdng2.ttf
p190
aVc:\u005Cwindows\u005Cfonts\u005Cconsolab.ttf
p191
aVC:\u005CWindows\u005CFonts\u005Cbahnschrift.ttf
p192
aVc:\u005Cwindows\u005Cfonts\u005Ccouri.ttf
p193
aVc:\u005Cwindows\u005Cfonts\u005Cstfangso.ttf
p194
aVc:\u005Cwindows\u005Cfonts\u005Csansserifcollection.ttf
p195
aVc:\u005Cwindows\u005Cfonts\u005Carial.ttf
p196
aVc:\u005Cwindows\u005Cfonts\u005Cbod_i.ttf
p197
aVC:\u005CWindows\u005CFonts\u005Csegoeuil.ttf
p198
aVC:\u005CWindows\u005CFonts\u005Cconsolai.ttf
p199
aVc:\u005Cwindows\u005Cfonts\u005Cengr.ttf
p200
aVC:\u005CWindows\u005CFonts\u005CLFAXDI.TTF
p201
aVC:\u005CWindows\u005CFonts\u005CGOTHIC.TTF
p202
aVc:\u005Cwindows\u005Cfonts\u005Cl_10646.ttf
p203
aVC:\u005CWindows\u005CFonts\u005Cseguisb.ttf
p204
aVC:\u005CWindows\u005CFonts\u005CSTSONG.TTF
p205
aVC:\u005CWindows\u005CFonts\u005CVLADIMIR.TTF
p206
aVC:\u005CWindows\u005CFonts\u005Cseguili.ttf
p207
aVc:\u005Cwindows\u005Cfonts\u005Cgeorgia.ttf
p208
aVc:\u005Cwindows\u005Cfonts\u005Crefsan.ttf
p209
aVc:\u005Cwindows\u005Cfonts\u005Cbookosb.ttf
p210
aVC:\u005CWindows\u005CFonts\u005Ccalibri.ttf
p211
aVc:\u005Cwindows\u005Cfonts\u005Cfelixti.ttf
p212
aVc:\u005Cwindows\u005Cfonts\u005Cinkfree.ttf
p213
aVC:\u005CWindows\u005CFonts\u005Csegoesc.ttf
p214
aVc:\u005Cwindows\u005Cfonts\u005Ckeysightsanscondensed.ttf
p215
aVc:\u005Cwindows\u005Cfonts\u005Cpalai.ttf
p216
aVc:\u005Cwindows\u005Cfonts\u005Cfrahvit.ttf
p217
aVC:\u005CWindows\u005CFonts\u005Cmalgun.ttf
p218
aVC:\u005CWindows\u005CFonts\u005CBRLNSR.TTF
p219
aVc:\u005Cwindows\u005Cfonts\u005Ccalibrib.ttf
p220
aVC:\u005CWindows\u005CFonts\u005CKeysightSansCondBoldItalic.ttf
p221
aVC:\u005CWindows\u005CFonts\u005Cconstani.ttf
p222
aVC:\u005CWindows\u005CFonts\u005CPERI____.TTF
p223
aVc:\u005Cwindows\u005Cfonts\u005Cbod_b.ttf
p224
aVc:\u005Cwindows\u005Cfonts\u005Cschlbkb.ttf
p225
aVc:\u005Cwindows\u005Cfonts\u005Cchiller.ttf
p226
aVC:\u005CWindows\u005CFonts\u005CANTQUAB.TTF
p227
aVC:\u005CWindows\u005CFonts\u005CCALISTI.TTF
p228
aVc:\u005Cwindows\u005Cfonts\u005Cconstan.ttf
p229
aVC:\u005CWindows\u005CFonts\u005CARIALNI.TTF
p230
aVc:\u005Cwindows\u005Cfonts\u005Ctrebuc.ttf
p231
aVc:\u005Cwindows\u005Cfonts\u005Csimhei.ttf
p232
aVC:\u005CWindows\u005CFonts\u005CMATURASC.TTF
p233
aVc:\u005Cwindows\u005Cfonts\u005Cgil_____.ttf
p234
aVc:\u005Cwindows\u005Cfonts\u005Csthupo.ttf
p235
aVc:\u005Cwindows\u005Cfonts\u005Crockb.ttf
p236
aVC:\u005CWindows\u005CFonts\u005CBRUSHSCI.TTF
p237
aVC:\u005CWindows\u005CFonts\u005CSTFANGSO.TTF
p238
aVc:\u005Cwindows\u005Cfonts\u005Ccour.ttf
p239
aVC:\u005CWindows\u005CFonts\u005CSitkaVF.ttf
p240
aVC:\u005CWindows\u005CFonts\u005Ctimesbi.ttf
p241
aVC:\u005CWindows\u005CFonts\u005CHARNGTON.TTF
p242
aVc:\u005Cwindows\u005Cfonts\u005Cjavatext.ttf
p243
aVc:\u005Cwindows\u005Cfonts\u005Ccalifr.ttf
p244
aVC:\u005CWindows\u005CFonts\u005CCALIST.TTF
p245
aVC:\u005CWindows\u005CFonts\u005CCOOPBL.TTF
p246
aVC:\u005CWindows\u005CFonts\u005Cariblk.ttf
p247
aVc:\u005Cwindows\u005Cfonts\u005Ccenscbk.ttf
p248
aVC:\u005CWindows\u005CFonts\u005Ccorbel.ttf
p249
aVC:\u005CWindows\u005CFonts\u005CGLECB.TTF
p250
aVc:\u005Cwindows\u005Cfonts\u005Ccandaral.ttf
p251
aVC:\u005CWindows\u005CFonts\u005CNIAGSOL.TTF
p252
aVC:\u005CWindows\u005CFonts\u005CNI_Vision.ttf
p253
aVC:\u005CWindows\u005CFonts\u005Cmsyi.ttf
p254
aVC:\u005CWindows\u005CFonts\u005CBASKVILL.TTF
p255
aVc:\u005Cwindows\u005Cfonts\u005Cdengl.ttf
p256
aVC:\u005CWindows\u005CFonts\u005CBOOKOSB.TTF
p257
aVc:\u005Cwindows\u005Cfonts\u005Ctcbi____.ttf
p258
aVc:\u005Cwindows\u005Cfonts\u005Cverdanab.ttf
p259
aVC:\u005CWindows\u005CFonts\u005Cphagspab.ttf
p260
aVc:\u005Cwindows\u005Cfonts\u005Ccourbi.ttf
p261
aVc:\u005Cwindows\u005Cfonts\u005Cstxinwei.ttf
p262
aVc:\u005Cwindows\u005Cfonts\u005Cwingdng3.ttf
p263
aVC:\u005CWindows\u005CFonts\u005CSTHUPO.TTF
p264
aVc:\u005Cwindows\u005Cfonts\u005Ccalistb.ttf
p265
aVC:\u005CWindows\u005CFonts\u005CJUICE___.TTF
p266
aVC:\u005CWindows\u005CFonts\u005Cconsola.ttf
p267
aVc:\u005Cwindows\u005Cfonts\u005Ccalisti.ttf
p268
aVC:\u005CWindows\u005CFonts\u005CBRADHITC.TTF
p269
aVc:\u005Cwindows\u005Cfonts\u005Cvineritc.ttf
p270
aVc:\u005Cwindows\u005Cfonts\u005Cjokerman.ttf
p271
aVC:\u005CWindows\u005CFonts\u005CLHANDW.TTF
p272
aVC:\u005CWindows\u005CFonts\u005CKeysightSansCondensedBold.ttf
p273
aVC:\u005CWindows\u005CFonts\u005CGILLUBCD.TTF
p274
aVC:\u005CWindows\u005CFonts\u005CCandaraz.ttf
p275
aVc:\u005Cwindows\u005Cfonts\u005Citcblkad.ttf
p276
aVC:\u005CWindows\u005CFonts\u005CBOD_CBI.TTF
p277
aVc:\u005Cwindows\u005Cfonts\u005Cbaskvill.ttf
p278
aVC:\u005CWindows\u005CFonts\u005CLFAX.TTF
p279
aVc:\u005Cwindows\u005Cfonts\u005Cmalgunsl.ttf
p280
aVc:\u005Cwindows\u005Cfonts\u005Crocki.ttf
p281
aVC:\u005CWindows\u005CFonts\u005CNirmala.ttf
p282
aVc:\u005Cwindows\u005Cfonts\u005Cdubai-regular.ttf
p283
aVc:\u005Cwindows\u005Cfonts\u005Ccalibril.ttf
p284
aVC:\u005CWindows\u005CFonts\u005CHATTEN.TTF
p285
aVc:\u005Cwindows\u005Cfonts\u005Cgarabd.ttf
p286
aVc:\u005Cwindows\u005Cfonts\u005Cseguibl.ttf
p287
aVc:\u005Cwindows\u005Cfonts\u005Ckeysightsanslight.ttf
p288
aVC:\u005CWindows\u005CFonts\u005CBOD_CI.TTF
p289
aVC:\u005CWindows\u005CFonts\u005Ccourbd.ttf
p290
aVC:\u005CWindows\u005CFonts\u005CSNAP____.TTF
p291
aVc:\u005Cwindows\u005Cfonts\u005Ccalist.ttf
p292
aVc:\u005Cwindows\u005Cfonts\u005Ccurlz___.ttf
p293
aVc:\u005Cwindows\u005Cfonts\u005Carialbi.ttf
p294
aVc:\u005Cwindows\u005Cfonts\u005Ctrebucit.ttf
p295
aVC:\u005CWindows\u005CFonts\u005CBOOKOSI.TTF
p296
aVc:\u005Cwindows\u005Cfonts\u005Cbritanic.ttf
p297
aVc:\u005Cwindows\u005Cfonts\u005Ccourbd.ttf
p298
aVc:\u005Cwindows\u005Cfonts\u005Cpertili.ttf
p299
aVC:\u005CWindows\u005CFonts\u005CCALIFB.TTF
p300
aVc:\u005Cwindows\u005Cfonts\u005Csimsunb.ttf
p301
aVC:\u005CWindows\u005CFonts\u005CTCCEB.TTF
p302
aVC:\u005CWindows\u005CFonts\u005CKeysightSansItalic.ttf
p303
aVC:\u005CWindows\u005CFonts\u005CREFSAN.TTF
p304
aVc:\u005Cwindows\u005Cfonts\u005Cframdit.ttf
p305
aVc:\u005Cwindows\u005Cfonts\u005Cbauhs93.ttf
p306
aVc:\u005Cwindows\u005Cfonts\u005Clcallig.ttf
p307
aVC:\u005CWindows\u005CFonts\u005CLTYPEBO.TTF
p308
aVc:\u005Cwindows\u005Cfonts\u005Ccolonna.ttf
p309
aVc:\u005Cwindows\u005Cfonts\u005Cleelauib.ttf
p310
aVc:\u005Cwindows\u005Cfonts\u005Cmsuighub.ttf
p311
aVc:\u005Cwindows\u005Cfonts\u005Ctimesbi.ttf
p312
aVc:\u005Cwindows\u005Cfonts\u005Ccomicbd.ttf
p313
aVc:\u005Cwindows\u005Cfonts\u005Ccandarab.ttf
p314
aVC:\u005CWindows\u005CFonts\u005CMOD20.TTF
p315
aVC:\u005CWindows\u005CFonts\u005CLTYPE.TTF
p316
aVc:\u005Cwindows\u005Cfonts\u005Ctempsitc.ttf
p317
aVc:\u005Cwindows\u005Cfonts\u005Cltypeo.ttf
p318
aVC:\u005CWindows\u005CFonts\u005Cgeorgiaz.ttf
p319
aVC:\u005CWindows\u005CFonts\u005CSegUIVar.ttf
p320
aVC:\u005CWindows\u005CFonts\u005CERASLGHT.TTF
p321
aVC:\u005CWindows\u005CFonts\u005Cmmrtextb.ttf
p322
aVC:\u005CWindows\u005CFonts\u005CTCM_____.TTF
p323
aVc:\u005Cwindows\u005Cfonts\u005Cgoudysto.ttf
p324
aVC:\u005CWindows\u005CFonts\u005Carialbi.ttf
p325
aVC:\u005CWindows\u005CFonts\u005Cseguibl.ttf
p326
aVc:\u005Cwindows\u005Cfonts\u005Ccalibrili.ttf
p327
aVc:\u005Cwindows\u005Cfonts\u005Cpalab.ttf
p328
aVC:\u005CWindows\u005CFonts\u005CROCCB___.TTF
p329
aVC:\u005CWindows\u005CFonts\u005Ccambriai.ttf
p330
aVc:\u005Cwindows\u005Cfonts\u005Cstzhongs.ttf
p331
aVC:\u005CWindows\u005CFonts\u005CCALIFR.TTF
p332
aVc:\u005Cwindows\u005Cfonts\u005Ccandarai.ttf
p333
aVc:\u005Cwindows\u005Cfonts\u005Cfrabk.ttf
p334
aVC:\u005CWindows\u005CFonts\u005CLeelaUIb.ttf
p335
aVC:\u005CWindows\u005CFonts\u005Ccorbelli.ttf
p336
aVc:\u005Cwindows\u005Cfonts\u005Cgoudosb.ttf
p337
aVC:\u005CWindows\u005CFonts\u005CDengb.ttf
p338
aVc:\u005Cwindows\u005Cfonts\u005Ceraslght.ttf
p339
aVc:\u005Cwindows\u005Cfonts\u005Cconstanb.ttf
p340
aVC:\u005CWindows\u005CFonts\u005Csegmdl2.ttf
p341
aVC:\u005CWindows\u005CFonts\u005CSTXINWEI.TTF
p342
aVc:\u005Cwindows\u005Cfonts\u005Cpertibd.ttf
p343
aVC:\u005CWindows\u005CFonts\u005CPARCHM.TTF
p344
aVc:\u005Cwindows\u005Cfonts\u005Celephnti.ttf
p345
aVC:\u005CWindows\u005CFonts\u005Ctimesi.ttf
p346
aVc:\u005Cwindows\u005Cfonts\u005Cgothicbi.ttf
p347
aVC:\u005CWindows\u005CFonts\u005CGabriola.ttf
p348
aVc:\u005Cwindows\u005Cfonts\u005Charngton.ttf
p349
aVc:\u005Cwindows\u005Cfonts\u005Ccalibriz.ttf
p350
aVC:\u005CWindows\u005CFonts\u005CGILSANUB.TTF
p351
aVc:\u005Cwindows\u005Cfonts\u005Ccomici.ttf
p352
aVC:\u005CWindows\u005CFonts\u005CKeysightSansCondensedItalic.ttf
p353
aVC:\u005CWindows\u005CFonts\u005CVINERITC.TTF
p354
aVC:\u005CWindows\u005CFonts\u005CBOD_CB.TTF
p355
aVC:\u005CWindows\u005CFonts\u005CENGR.TTF
p356
aVC:\u005CWindows\u005CFonts\u005CCandarai.ttf
p357
aVC:\u005CWindows\u005CFonts\u005CITCBLKAD.TTF
p358
aVc:\u005Cwindows\u005Cfonts\u005Cgarait.ttf
p359
aVC:\u005CWindows\u005CFonts\u005Ctrebucbd.ttf
p360
aVC:\u005CWindows\u005CFonts\u005Ccouri.ttf
p361
aVc:\u005Cwindows\u005Cfonts\u005Cgilb____.ttf
p362
aVC:\u005CWindows\u005CFonts\u005Cverdanaz.ttf
p363
aVc:\u005Cwindows\u005Cfonts\u005Ccentury.ttf
p364
aVc:\u005Cwindows\u005Cfonts\u005Cconstanz.ttf
p365
aVC:\u005CWindows\u005CFonts\u005Cmonbaiti.ttf
p366
aVc:\u005Cwindows\u005Cfonts\u005Cgilbi___.ttf
p367
aVc:\u005Cwindows\u005Cfonts\u005Coutlook.ttf
p368
aVC:\u005CWindows\u005CFonts\u005Csylfaen.ttf
p369
aVc:\u005Cwindows\u005Cfonts\u005Clfaxdi.ttf
p370
aVc:\u005Cwindows\u005Cfonts\u005Ccandara.ttf
p371
aVc:\u005Cwindows\u005Cfonts\u005Cfzstk.ttf
p372
aVC:\u005CWindows\u005CFonts\u005CCOPRGTL.TTF
p373
aVC:\u005CWindows\u005CFonts\u005CPER_____.TTF
p374
aVC:\u005CWindows\u005CFonts\u005CCandaral.ttf
p375
aVc:\u005Cwindows\u005Cfonts\u005Carialn.ttf
p376
aVC:\u005CWindows\u005CFonts\u005CDengl.ttf
p377
aVc:\u005Cwindows\u005Cfonts\u005Clfax.ttf
p378
aVC:\u005CWindows\u005CFonts\u005CGILI____.TTF
p379
aVC:\u005CWindows\u005CFonts\u005Csimkai.ttf
p380
aVC:\u005CWindows\u005CFonts\u005Ccomicbd.ttf
p381
aVC:\u005CWindows\u005CFonts\u005CRAGE.TTF
p382
aVc:\u005Cwindows\u005Cfonts\u005Chatten.ttf
p383
aVC:\u005CWindows\u005CFonts\u005CPERBI___.TTF
p384
aVc:\u005Cwindows\u005Cfonts\u005Cbrlnsr.ttf
p385
aVC:\u005CWindows\u005CFonts\u005CLATINWD.TTF
p386
aVC:\u005CWindows\u005CFonts\u005CBSSYM7.TTF
p387
aVc:\u005Cwindows\u005Cfonts\u005Cmsyi.ttf
p388
aVc:\u005Cwindows\u005Cfonts\u005Cwingding.ttf
p389
aVc:\u005Cwindows\u005Cfonts\u005Cbell.ttf
p390
aVC:\u005CWindows\u005CFonts\u005Csimhei.ttf
p391
aVc:\u005Cwindows\u005Cfonts\u005Cdubai-light.ttf
p392
aVC:\u005CWindows\u005CFonts\u005Ccorbelz.ttf
p393
aVC:\u005CWindows\u005CFonts\u005CFORTE.TTF
p394
aVC:\u005CWindows\u005CFonts\u005CBOD_B.TTF
p395
aVc:\u005Cwindows\u005Cfonts\u005Csegoescb.ttf
p396
aVC:\u005CWindows\u005CFonts\u005Carialbd.ttf
p397
aVC:\u005CWindows\u005CFonts\u005CFRAHVIT.TTF
p398
aVC:\u005CWindows\u005CFonts\u005Ccomic.ttf
p399
aVC:\u005CWindows\u005CFonts\u005CTCCM____.TTF
p400
aVc:\u005Cwindows\u005Cfonts\u005Cjuice___.ttf
p401
aVC:\u005CWindows\u005CFonts\u005CFRSCRIPT.TTF
p402
aVC:\u005CWindows\u005CFonts\u005CSCHLBKB.TTF
p403
aVc:\u005Cwindows\u005Cfonts\u005Clsans.ttf
p404
aVC:\u005CWindows\u005CFonts\u005CMISTRAL.TTF
p405
aVc:\u005Cwindows\u005Cfonts\u005Cframdcn.ttf
p406
aVC:\u005CWindows\u005CFonts\u005CGARABD.TTF
p407
aVC:\u005CWindows\u005CFonts\u005CFRABKIT.TTF
p408
aVC:\u005CWindows\u005CFonts\u005CCASTELAR.TTF
p409
aVc:\u005Cwindows\u005Cfonts\u005Cantquab.ttf
p410
aVc:\u005Cwindows\u005Cfonts\u005Cbrushsci.ttf
p411
aVC:\u005CWindows\u005CFonts\u005CLFAXI.TTF
p412
aVc:\u005Cwindows\u005Cfonts\u005Cfreescpt.ttf
p413
aVc:\u005Cwindows\u005Cfonts\u005Cbod_ci.ttf
p414
aVC:\u005CWindows\u005CFonts\u005CBELL.TTF
p415
aVc:\u005Cwindows\u005Cfonts\u005Cgilsanub.ttf
p416
aVC:\u005CWindows\u005CFonts\u005CPAPYRUS.TTF
p417
aVC:\u005CWindows\u005CFonts\u005CDUBAI-LIGHT.TTF
p418
aVc:\u005Cwindows\u005Cfonts\u005Cgigi.ttf
p419
aVC:\u005CWindows\u005CFonts\u005CBAUHS93.TTF
p420
aVC:\u005CWindows\u005CFonts\u005CLBRITED.TTF
p421
aVC:\u005CWindows\u005CFonts\u005CBRLNSB.TTF
p422
aVC:\u005CWindows\u005CFonts\u005CCALISTB.TTF
p423
aVc:\u005Cwindows\u005Cfonts\u005Clatinwd.ttf
p424
aVc:\u005Cwindows\u005Cfonts\u005Chtowert.ttf
p425
aVc:\u005Cwindows\u005Cfonts\u005Cpapyrus.ttf
p426
aVc:\u005Cwindows\u005Cfonts\u005Clbritedi.ttf
p427
aVc:\u005Cwindows\u005Cfonts\u005Celephnt.ttf
p428
aVc:\u005Cwindows\u005Cfonts\u005Cleelawad.ttf
p429
aVc:\u005Cwindows\u005Cfonts\u005Cariblk.ttf
p430
aVC:\u005CWindows\u005CFonts\u005Cntailu.ttf
p431
aVC:\u005CWindows\u005CFonts\u005CFZYTK.TTF
p432
aVC:\u005CWindows\u005CFonts\u005Cmmrtext.ttf
p433
aVc:\u005Cwindows\u005Cfonts\u005Cfradmcn.ttf
p434
aVc:\u005Cwindows\u005Cfonts\u005Cconsolaz.ttf
p435
aVc:\u005Cwindows\u005Cfonts\u005Cbookosbi.ttf
p436
aVC:\u005CWindows\u005CFonts\u005CHTOWERT.TTF
p437
aVC:\u005CWindows\u005CFonts\u005CROCKI.TTF
p438
aVC:\u005CWindows\u005CFonts\u005CTEMPSITC.TTF
p439
aVC:\u005CWindows\u005CFonts\u005Ctrebuc.ttf
p440
aVC:\u005CWindows\u005CFonts\u005Ccorbeli.ttf
p441
aVC:\u005CWindows\u005CFonts\u005CMTEXTRA.TTF
p442
aVC:\u005CWindows\u005CFonts\u005CKeysightSansBold.ttf
p443
aVC:\u005CWindows\u005CFonts\u005Cconsolab.ttf
p444
aVC:\u005CWindows\u005CFonts\u005CSTCAIYUN.TTF
p445
aVc:\u005Cwindows\u005Cfonts\u005Crock.ttf
p446
aVc:\u005Cwindows\u005Cfonts\u005Ccorbell.ttf
p447
aVC:\u005CWindows\u005CFonts\u005CAGENCYB.TTF
p448
aVc:\u005Cwindows\u005Cfonts\u005Clsansdi.ttf
p449
aVc:\u005Cwindows\u005Cfonts\u005Ccorbeli.ttf
p450
aVc:\u005Cwindows\u005Cfonts\u005Ckeysightsanslightitalic.ttf
p451
aVC:\u005CWindows\u005CFonts\u005CFRADMIT.TTF
p452
aVC:\u005CWindows\u005CFonts\u005CGOTHICB.TTF
p453
aVc:\u005Cwindows\u005Cfonts\u005Crockbi.ttf
p454
aVC:\u005CWindows\u005CFonts\u005Cgeorgia.ttf
p455
aVc:\u005Cwindows\u005Cfonts\u005Chimalaya.ttf
p456
aVc:\u005Cwindows\u005Cfonts\u005Ccalibrii.ttf
p457
aVc:\u005Cwindows\u005Cfonts\u005Cgoudos.ttf
p458
aVC:\u005CWindows\u005CFonts\u005CSTZHONGS.TTF
p459
aVC:\u005CWindows\u005CFonts\u005CELEPHNT.TTF
p460
aVC:\u005CWindows\u005CFonts\u005Ccourbi.ttf
p461
aVC:\u005CWindows\u005CFonts\u005Ccorbelb.ttf
p462
aVC:\u005CWindows\u005CFonts\u005COCRAEXT.TTF
p463
aVc:\u005Cwindows\u005Cfonts\u005Cmsuighur.ttf
p464
aVC:\u005CWindows\u005CFonts\u005Cpalai.ttf
p465
aVc:\u005Cwindows\u005Cfonts\u005Csitkavf-italic.ttf
p466
aVc:\u005Cwindows\u005Cfonts\u005Cni_vision.ttf
p467
aVC:\u005CWindows\u005CFonts\u005CGARAIT.TTF
p468
aVC:\u005CWindows\u005CFonts\u005Cseguisli.ttf
p469
aVc:\u005Cwindows\u005Cfonts\u005Calger.ttf
p470
aVc:\u005Cwindows\u005Cfonts\u005Cmaturasc.ttf
p471
aVc:\u005Cwindows\u005Cfonts\u005Ckeysightsanscondenseditalic.ttf
p472
aVc:\u005Cwindows\u005Cfonts\u005Cltype.ttf
p473
aVC:\u005CWindows\u005CFonts\u005CGARA.TTF
p474
aVC:\u005CWindows\u005CFonts\u005CFRADM.TTF
p475
aVC:\u005CWindows\u005CFonts\u005CRAVIE.TTF
p476
aVc:\u005Cwindows\u005Cfonts\u005Cpalscri.ttf
p477
aVC:\u005CWindows\u005CFonts\u005Ctahomabd.ttf
p478
aVc:\u005Cwindows\u005Cfonts\u005Cniagsol.ttf
p479
aVc:\u005Cwindows\u005Cfonts\u005Cgothic.ttf
p480
aVC:\u005CWindows\u005CFonts\u005Csimsunb.ttf
p481
aVc:\u005Cwindows\u005Cfonts\u005Cseguili.ttf
p482
aVc:\u005Cwindows\u005Cfonts\u005Cmalgunbd.ttf
p483
aVc:\u005Cwindows\u005Cfonts\u005Cpristina.ttf
p484
aVC:\u005CWindows\u005CFonts\u005Cwebdings.ttf
p485
aVc:\u005Cwindows\u005Cfonts\u005Cntailu.ttf
p486
aVc:\u005Cwindows\u005Cfonts\u005Cper_____.ttf
p487
aVC:\u005CWindows\u005CFonts\u005Ccalibrili.ttf
p488
aVc:\u005Cwindows\u005Cfonts\u005Cgara.ttf
p489
aVc:\u005Cwindows\u005Cfonts\u005Clfaxi.ttf
p490
aVc:\u005Cwindows\u005Cfonts\u005Cfrahv.ttf
p491
aVC:\u005CWindows\u005CFonts\u005CNIAGENG.TTF
p492
aVc:\u005Cwindows\u005Cfonts\u005Ccandarali.ttf
p493
aVC:\u005CWindows\u005CFonts\u005CREFSPCL.TTF
p494
aVc:\u005Cwindows\u005Cfonts\u005Cleelawdb.ttf
p495
aVc:\u005Cwindows\u005Cfonts\u005Csymbol.ttf
p496
aVc:\u005Cwindows\u005Cfonts\u005Cwebdings.ttf
p497
aVC:\u005CWindows\u005CFonts\u005Csegoeuiz.ttf
p498
aVC:\u005CWindows\u005CFonts\u005CINFROMAN.TTF
p499
aVc:\u005Cwindows\u005Cfonts\u005Cbkant.ttf
p500
aVC:\u005CWindows\u005CFonts\u005Cntailub.ttf
p501
aVC:\u005CWindows\u005CFonts\u005Ccomicz.ttf
p502
aVc:\u005Cwindows\u005Cfonts\u005Cconsolai.ttf
p503
aVc:\u005Cwindows\u005Cfonts\u005Crefspcl.ttf
p504
aVc:\u005Cwindows\u005Cfonts\u005Cgoudosi.ttf
p505
aVc:\u005Cwindows\u005Cfonts\u005Cantquai.ttf
p506
aVc:\u005Cwindows\u005Cfonts\u005Cdubai-medium.ttf
p507
aVc:\u005Cwindows\u005Cfonts\u005Clbrite.ttf
p508
aVC:\u005CWindows\u005CFonts\u005Cverdana.ttf
p509
aVc:\u005Cwindows\u005Cfonts\u005Csegoeuii.ttf
p510
aVc:\u005Cwindows\u005Cfonts\u005Cfrscript.ttf
p511
aVC:\u005CWindows\u005CFonts\u005CROCK.TTF
p512
aVc:\u005Cwindows\u005Cfonts\u005Cmonbaiti.ttf
p513
aVC:\u005CWindows\u005CFonts\u005CARIALNBI.TTF
p514
aVc:\u005Cwindows\u005Cfonts\u005Cseguihis.ttf
p515
aVc:\u005Cwindows\u005Cfonts\u005Cbod_blar.ttf
p516
aVc:\u005Cwindows\u005Cfonts\u005Ccoprgtb.ttf
p517
aVc:\u005Cwindows\u005Cfonts\u005Ccorbel.ttf
p518
aVC:\u005CWindows\u005CFonts\u005CGOUDOSI.TTF
p519
aVC:\u005CWindows\u005CFonts\u005Csegoeui.ttf
p520
aVc:\u005Cwindows\u005Cfonts\u005Cstcaiyun.ttf
p521
aVc:\u005Cwindows\u005Cfonts\u005Cgilc____.ttf
p522
aVC:\u005CWindows\u005CFonts\u005CBOD_BI.TTF
p523
aVC:\u005CWindows\u005CFonts\u005Ccorbell.ttf
p524
aVc:\u005Cwindows\u005Cfonts\u005Cmistral.ttf
p525
aVc:\u005Cwindows\u005Cfonts\u005Crocc____.ttf
p526
aVC:\u005CWindows\u005CFonts\u005Csymbol.ttf
p527
aVC:\u005CWindows\u005CFonts\u005Cmstmc.ttf
p528
aVc:\u005Cwindows\u005Cfonts\u005Cmmrtext.ttf
p529
aVc:\u005Cwindows\u005Cfonts\u005Csegoesc.ttf
p530
aVc:\u005Cwindows\u005Cfonts\u005Csegoeuisl.ttf
p531
aVC:\u005CWindows\u005CFonts\u005CVIVALDII.TTF
p532
aVC:\u005CWindows\u005CFonts\u005CBOOKOS.TTF
p533
aVC:\u005CWindows\u005CFonts\u005Cpalab.ttf
p534
aVC:\u005CWindows\u005CFonts\u005CSHOWG.TTF
p535
aVC:\u005CWindows\u005CFonts\u005CDUBAI-REGULAR.TTF
p536
aVC:\u005CWindows\u005CFonts\u005Carial.ttf
p537
aVc:\u005Cwindows\u005Cfonts\u005Ccorbelz.ttf
p538
aVc:\u005Cwindows\u005Cfonts\u005Cstliti.ttf
p539
aVC:\u005CWindows\u005CFonts\u005Ctahoma.ttf
p540
aVC:\u005CWindows\u005CFonts\u005CMAGNETOB.TTF
p541
aVc:\u005Cwindows\u005Cfonts\u005Ctccm____.ttf
p542
aVc:\u005Cwindows\u005Cfonts\u005Cglsnecb.ttf
p543
aVc:\u005Cwindows\u005Cfonts\u005Ccomic.ttf
p544
aVc:\u005Cwindows\u005Cfonts\u005Csegoeprb.ttf
p545
aVc:\u005Cwindows\u005Cfonts\u005Cseguivar.ttf
p546
aVc:\u005Cwindows\u005Cfonts\u005Cmmrtextb.ttf
p547
aVC:\u005CWindows\u005CFonts\u005CFRAMDCN.TTF
p548
aVC:\u005CWindows\u005CFonts\u005CIMPRISHA.TTF
p549
aVC:\u005CWindows\u005CFonts\u005CLSANSD.TTF
p550
aVC:\u005CWindows\u005CFonts\u005Cverdanab.ttf
p551
aVc:\u005Cwindows\u005Cfonts\u005Ctahoma.ttf
p552
aVc:\u005Cwindows\u005Cfonts\u005Cgothicb.ttf
p553
aVc:\u005Cwindows\u005Cfonts\u005Cbrlnsb.ttf
p554
aVc:\u005Cwindows\u005Cfonts\u005Cvivaldii.ttf
p555
aVC:\u005CWindows\u005CFonts\u005CPLAYBILL.TTF
p556
aVc:\u005Cwindows\u005Cfonts\u005Ctcb_____.ttf
p557
aVc:\u005Cwindows\u005Cfonts\u005Cbookos.ttf
p558
aVc:\u005Cwindows\u005Cfonts\u005Cframd.ttf
p559
aVC:\u005CWindows\u005CFonts\u005CCALIFI.TTF
p560
aVc:\u005Cwindows\u005Cfonts\u005Cbrlnsdb.ttf
p561
aVc:\u005Cwindows\u005Cfonts\u005Cperb____.ttf
p562
aVC:\u005CWindows\u005CFonts\u005CDeng.ttf
p563
aVc:\u005Cwindows\u005Cfonts\u005Ccomicz.ttf
p564
aVc:\u005Cwindows\u005Cfonts\u005Crage.ttf
p565
aVc:\u005Cwindows\u005Cfonts\u005Carialnbi.ttf
p566
aVc:\u005Cwindows\u005Cfonts\u005Cbod_cb.ttf
p567
aVc:\u005Cwindows\u005Cfonts\u005Cparchm.ttf
p568
aVC:\u005CWindows\u005CFonts\u005Cconsolaz.ttf
p569
aVc:\u005Cwindows\u005Cfonts\u005Charlowsi.ttf
p570
aVC:\u005CWindows\u005CFonts\u005Cgadugib.ttf
p571
aVC:\u005CWindows\u005CFonts\u005Csegoeuisl.ttf
p572
aVC:\u005CWindows\u005CFonts\u005CPOORICH.TTF
p573
aVc:\u005Cwindows\u005Cfonts\u005Cseguisli.ttf
p574
aVc:\u005Cwindows\u005Cfonts\u005Cimpact.ttf
p575
aVc:\u005Cwindows\u005Cfonts\u005Cmalgun.ttf
p576
aVC:\u005CWindows\u005CFonts\u005CBOD_CR.TTF
p577
aVc:\u005Cwindows\u005Cfonts\u005Cshowg.ttf
p578
aVc:\u005Cwindows\u005Cfonts\u005Carialni.ttf
p579
aVC:\u005CWindows\u005CFonts\u005CLSANSDI.TTF
p580
aVc:\u005Cwindows\u005Cfonts\u005Cgothici.ttf
p581
aVC:\u005CWindows\u005CFonts\u005Ccambriab.ttf
p582
aVC:\u005CWindows\u005CFonts\u005CROCKEB.TTF
p583
aVC:\u005CWindows\u005CFonts\u005CERASDEMI.TTF
p584
aVc:\u005Cwindows\u005Cfonts\u005Cdengb.ttf
p585
aVC:\u005CWindows\u005CFonts\u005CLeelUIsl.ttf
p586
aVc:\u005Cwindows\u005Cfonts\u005Cgeorgiai.ttf
p587
aVC:\u005CWindows\u005CFonts\u005Cseguiemj.ttf
p588
aVC:\u005CWindows\u005CFonts\u005CLBRITE.TTF
p589
aVC:\u005CWindows\u005CFonts\u005Ctrebucbi.ttf
p590
aVc:\u005Cwindows\u005Cfonts\u005Cforte.ttf
p591
aVc:\u005Cwindows\u005Cfonts\u005Cpala.ttf
p592
aVC:\u005CWindows\u005CFonts\u005CInkfree.ttf
p593
aVC:\u005CWindows\u005CFonts\u005CAGENCYR.TTF
p594
aVC:\u005CWindows\u005CFonts\u005CSIMYOU.TTF
p595
aVc:\u005Cwindows\u005Cfonts\u005Cstxingka.ttf
p596
aVc:\u005Cwindows\u005Cfonts\u005Ctimesi.ttf
p597
aVc:\u005Cwindows\u005Cfonts\u005Cleelawui.ttf
p598
aVc:\u005Cwindows\u005Cfonts\u005Ckeysightsanscondbolditalic.ttf
p599
aVC:\u005CWindows\u005CFonts\u005CALGER.TTF
p600
aVc:\u005Cwindows\u005Cfonts\u005Cstencil.ttf
p601
aVC:\u005CWindows\u005CFonts\u005Cariali.ttf
p602
aVc:\u005Cwindows\u005Cfonts\u005Cseguisym.ttf
p603
aVC:\u005CWindows\u005CFonts\u005CBOD_BLAR.TTF
p604
aVc:\u005Cwindows\u005Cfonts\u005Csnap____.ttf
p605
aVc:\u005Cwindows\u005Cfonts\u005Ccandaraz.ttf
p606
aVc:\u005Cwindows\u005Cfonts\u005Cagencyr.ttf
p607
aVc:\u005Cwindows\u005Cfonts\u005Citcedscr.ttf
p608
aVC:\u005CWindows\u005CFonts\u005Cebrimabd.ttf
p609
aVC:\u005CWindows\u005CFonts\u005CSCHLBKI.TTF
p610
aVC:\u005CWindows\u005CFonts\u005CCENSCBK.TTF
p611
aVc:\u005Cwindows\u005Cfonts\u005Ckeysightsanslightcondensed.ttf
p612
aVc:\u005Cwindows\u005Cfonts\u005Ccambriaz.ttf
p613
aVC:\u005CWindows\u005CFonts\u005CGOUDYSTO.TTF
p614
aVC:\u005CWindows\u005CFonts\u005CITCKRIST.TTF
p615
aVc:\u005Cwindows\u005Cfonts\u005Ckeysightsanscondensedbold.ttf
p616
aVc:\u005Cwindows\u005Cfonts\u005Coldengl.ttf
p617
aVc:\u005Cwindows\u005Cfonts\u005Cgeorgiab.ttf
p618
aVC:\u005CWindows\u005CFonts\u005CKeysightSansLightCondensed.ttf
p619
aVC:\u005CWindows\u005CFonts\u005Csimfang.ttf
p620
aVC:\u005CWindows\u005CFonts\u005Cconstan.ttf
p621
aVc:\u005Cwindows\u005Cfonts\u005Cniageng.ttf
p622
aVC:\u005CWindows\u005CFonts\u005CROCKBI.TTF
p623
aVc:\u005Cwindows\u005Cfonts\u005Clsansd.ttf
p624
aVC:\u005CWindows\u005CFonts\u005Cpala.ttf
p625
aVC:\u005CWindows\u005CFonts\u005CROCC____.TTF
p626
aVc:\u005Cwindows\u005Cfonts\u005Csegoeuib.ttf
p627
aVc:\u005Cwindows\u005Cfonts\u005Cgadugib.ttf
p628
aVC:\u005CWindows\u005CFonts\u005CMTCORSVA.TTF
p629
aVC:\u005CWindows\u005CFonts\u005COUTLOOK.TTF
p630
aVc:\u005Cwindows\u005Cfonts\u005Csegoeuil.ttf
p631
aVc:\u005Cwindows\u005Cfonts\u005Clbritei.ttf
p632
aVC:\u005CWindows\u005CFonts\u005CBOD_R.TTF
p633
aVc:\u005Cwindows\u005Cfonts\u005Chtowerti.ttf
p634
aVc:\u005Cwindows\u005Cfonts\u005Citckrist.ttf
p635
aVc:\u005Cwindows\u005Cfonts\u005Clbrited.ttf
p636
aVC:\u005CWindows\u005CFonts\u005Ctrebucit.ttf
p637
aVC:\u005CWindows\u005CFonts\u005CSitkaVF-Italic.ttf
p638
aVC:\u005CWindows\u005CFonts\u005CKeysightSansBoldItalic.ttf
p639
aVC:\u005CWindows\u005CFonts\u005CDUBAI-MEDIUM.TTF
p640
aVC:\u005CWindows\u005CFonts\u005CGILC____.TTF
p641
aVC:\u005CWindows\u005CFonts\u005CGOUDOS.TTF
p642
aVc:\u005Cwindows\u005Cfonts\u005Cebrima.ttf
p643
aVc:\u005Cwindows\u005Cfonts\u005Cbradhitc.ttf
p644
aVC:\u005CWindows\u005CFonts\u005Clucon.ttf
p645
aVC:\u005CWindows\u005CFonts\u005CCENTURY.TTF
p646
aVC:\u005CWindows\u005CFonts\u005Cgeorgiab.ttf
p647
aVC:\u005CWindows\u005CFonts\u005CGIL_____.TTF
p648
aVC:\u005CWindows\u005CFonts\u005COLDENGL.TTF
p649
aVC:\u005CWindows\u005CFonts\u005CROCKB.TTF
p650
aVc:\u005Cwindows\u005Cfonts\u005Cvladimir.ttf
p651
aVC:\u005CWindows\u005CFonts\u005CARIALNB.TTF
p652
aVc:\u005Cwindows\u005Cfonts\u005Cerasbd.ttf
p653
aVc:\u005Cwindows\u005Cfonts\u005Cbssym7.ttf
p654
aVC:\u005CWindows\u005CFonts\u005CBELLI.TTF
p655
aVC:\u005CWindows\u005CFonts\u005CLEELAWDB.TTF
p656
aVc:\u005Cwindows\u005Cfonts\u005Ckeysightsanslightconditalic.ttf
p657
aVC:\u005CWindows\u005CFonts\u005Csegoescb.ttf
p658
aVC:\u005CWindows\u005CFonts\u005Cgadugi.ttf
p659
aVC:\u005CWindows\u005CFonts\u005CGLSNECB.TTF
p660
aVc:\u005Cwindows\u005Cfonts\u005Cleeluisl.ttf
p661
aVC:\u005CWindows\u005CFonts\u005CCENTAUR.TTF
p662
aVc:\u005Cwindows\u005Cfonts\u005Cverdana.ttf
p663
aVC:\u005CWindows\u005CFonts\u005CERASBD.TTF
p664
aVC:\u005CWindows\u005CFonts\u005CCandara.ttf
p665
aVc:\u005Cwindows\u005Cfonts\u005Clhandw.ttf
p666
aVC:\u005CWindows\u005CFonts\u005CKeysightSansLightItalic.ttf
p667
aVC:\u005CWindows\u005CFonts\u005CPRISTINA.TTF
p668
aVc:\u005Cwindows\u005Cfonts\u005Crockeb.ttf
p669
aVc:\u005Cwindows\u005Cfonts\u005Ctimesbd.ttf
p670
aVc:\u005Cwindows\u005Cfonts\u005Cplaybill.ttf
p671
aVc:\u005Cwindows\u005Cfonts\u005Cltypeb.ttf
p672
aVC:\u005CWindows\u005CFonts\u005CGOTHICBI.TTF
p673
aVC:\u005CWindows\u005CFonts\u005Cholomdl2.ttf
p674
aVC:\u005CWindows\u005CFonts\u005CBELLB.TTF
p675
aVc:\u005Cwindows\u005Cfonts\u005Cbod_r.ttf
p676
aVc:\u005Cwindows\u005Cfonts\u005Cbod_pstc.ttf
p677
aVC:\u005CWindows\u005CFonts\u005Cseguisym.ttf
p678
aVc:\u005Cwindows\u005Cfonts\u005Cconstani.ttf
p679
aVC:\u005CWindows\u005CFonts\u005Ctimes.ttf
p680
aVc:\u005Cwindows\u005Cfonts\u005Cntailub.ttf
p681
aVc:\u005Cwindows\u005Cfonts\u005Cholomdl2.ttf
p682
aVC:\u005CWindows\u005CFonts\u005CFREESCPT.TTF
p683
aVc:\u005Cwindows\u005Cfonts\u005Cgabriola.ttf
p684
aVc:\u005Cwindows\u005Cfonts\u005Csimli.ttf
p685
aVC:\u005CWindows\u005CFonts\u005CTCBI____.TTF
p686
aVc:\u005Cwindows\u005Cfonts\u005Cperbi___.ttf
p687
aVc:\u005Cwindows\u005Cfonts\u005Cpalabi.ttf
p688
aVC:\u005CWindows\u005CFonts\u005Cphagspa.ttf
p689
aVC:\u005CWindows\u005CFonts\u005CPERTIBD.TTF
p690
aVc:\u005Cwindows\u005Cfonts\u005Cravie.ttf
p691
aVc:\u005Cwindows\u005Cfonts\u005Cstxihei.ttf
p692
aVc:\u005Cwindows\u005Cfonts\u005Ctcceb.ttf
p693
aVc:\u005Cwindows\u005Cfonts\u005Cerasdemi.ttf
p694
aVC:\u005CWindows\u005CFonts\u005CLBRITEDI.TTF
p695
aVC:\u005CWindows\u005CFonts\u005CFZSTK.TTF
p696
aVc:\u005Cwindows\u005Cfonts\u005Cscriptbl.ttf
p697
aVC:\u005CWindows\u005CFonts\u005CGOTHICI.TTF
p698
aVC:\u005CWindows\u005CFonts\u005CMAIAN.TTF
p699
aVc:\u005Cwindows\u005Cfonts\u005Cdeng.ttf
p700
aVc:\u005Cwindows\u005Cfonts\u005Ccalistbi.ttf
p701
aVc:\u005Cwindows\u005Cfonts\u005Csimfang.ttf
p702
aVC:\u005CWindows\u005CFonts\u005CTCCB____.TTF
p703
aVc:\u005Cwindows\u005Cfonts\u005Cmvboli.ttf
p704
aVC:\u005CWindows\u005CFonts\u005CHARLOWSI.TTF
p705
aVC:\u005CWindows\u005CFonts\u005CPERTILI.TTF
p706
aVC:\u005CWindows\u005CFonts\u005CBOOKOSBI.TTF
p707
aVC:\u005CWindows\u005CFonts\u005CDUBAI-BOLD.TTF
p708
aVC:\u005CWindows\u005CFonts\u005CNirmalaB.ttf
p709
aVc:\u005Cwindows\u005Cfonts\u005Cbellb.ttf
p710
aVc:\u005Cwindows\u005Cfonts\u005Csitkavf.ttf
p711
aVC:\u005CWindows\u005CFonts\u005CLCALLIG.TTF
p712
aVC:\u005CWindows\u005CFonts\u005CPERB____.TTF
p713
aVC:\u005CWindows\u005CFonts\u005CTCB_____.TTF
p714
aVC:\u005CWindows\u005CFonts\u005CBOD_PSTC.TTF
p715
aVc:\u005Cwindows\u005Cfonts\u005Cphagspab.ttf
p716
aVc:\u005Cwindows\u005Cfonts\u005Csegmdl2.ttf
p717
aVc:\u005Cwindows\u005Cfonts\u005Cpoorich.ttf
p718
aVc:\u005Cwindows\u005Cfonts\u005Cnirmalab.ttf
p719
aVc:\u005Cwindows\u005Cfonts\u005Cbod_cbi.ttf
p720
aVC:\u005CWindows\u005CFonts\u005CCandarab.ttf
p721
aVc:\u005Cwindows\u005Cfonts\u005Cbroadw.ttf
p722
asS'_FontManager__default_weight'
p723
S'normal'
p724
sS'default_size'
p725
NsS'defaultFont'
p726
g5
sS'afmdict'
p727
(dp728
sS'afmfiles'
p729
(lp730
sS'ttfdict'
p731
(dp732
S'Bodoni MT Condensed'
p733
(dp734
S'italic'
p735
(dp736
g724
(dp737
I400
(dp738
S'condensed'
p739
(dp740
S'scalable'
p741
g414
sssI700
(dp742
g739
(dp743
g741
g720
sssssg724
(dp744
g724
(dp745
I400
(dp746
g739
(dp747
g741
g577
sssI700
(dp748
g739
(dp749
g741
g567
ssssssS'Calibri'
p750
(dp751
g735
(dp752
g724
(dp753
I400
(dp754
g724
(dp755
g741
g94
sssI700
(dp756
g724
(dp757
g741
g123
sssssg724
(dp758
g724
(dp759
I400
(dp760
g724
(dp761
g741
g154
sssI700
(dp762
g724
(dp763
g741
g55
ssssssS'Stencil'
p764
(dp765
g724
(dp766
g724
(dp767
I400
(dp768
g724
(dp769
g741
g601
ssssssS'Arial'
p770
(dp771
g735
(dp772
g724
(dp773
I400
(dp774
g724
(dp775
g741
g37
sssI700
(dp776
g724
(dp777
g741
g294
sssssg724
(dp778
g724
(dp779
I400
(dp780
g724
(dp781
g741
g196
sssI700
(dp782
g724
(dp783
g741
g62
ssssssS'Segoe MDL2 Assets'
p784
(dp785
g724
(dp786
g724
(dp787
I400
(dp788
g724
(dp789
g741
g341
ssssssS'Perpetua Titling MT'
p790
(dp791
g724
(dp792
g724
(dp793
I200
(dp794
g724
(dp795
g741
g706
sssI700
(dp796
g724
(dp797
g741
g690
ssssssS'Haettenschweiler'
p798
(dp799
g724
(dp800
g724
(dp801
I400
(dp802
g724
(dp803
g741
g383
ssssssS'Matura MT Script Capitals'
p804
(dp805
g724
(dp806
g724
(dp807
I400
(dp808
g724
(dp809
g741
g471
ssssssS'Arial Narrow'
p810
(dp811
g735
(dp812
g724
(dp813
I400
(dp814
g739
(dp815
g741
g579
sssI700
(dp816
g739
(dp817
g741
g566
sssssg724
(dp818
g724
(dp819
I400
(dp820
g739
(dp821
g741
g376
sssI700
(dp822
g739
(dp823
g741
g652
ssssssS'Elephant'
p824
(dp825
g735
(dp826
g724
(dp827
I400
(dp828
g724
(dp829
g741
g345
sssssg724
(dp830
g724
(dp831
I400
(dp832
g724
(dp833
g741
g460
ssssssS'Gill Sans MT Ext Condensed Bold'
p834
(dp835
g724
(dp836
g724
(dp837
I700
(dp838
g739
(dp839
g741
g660
ssssssS'Franklin Gothic Demi Cond'
p840
(dp841
g724
(dp842
g724
(dp843
I600
(dp844
g739
(dp845
g741
g434
ssssssS'Eras Demi ITC'
p846
(dp847
g724
(dp848
g724
(dp849
I600
(dp850
g724
(dp851
g741
g694
ssssssS'Trebuchet MS'
p852
(dp853
g735
(dp854
g724
(dp855
I400
(dp856
g724
(dp857
g741
g295
sssI700
(dp858
g724
(dp859
g741
g25
sssssg724
(dp860
g724
(dp861
I400
(dp862
g724
(dp863
g741
g231
sssI700
(dp864
g724
(dp865
g741
g12
ssssssS'Franklin Gothic Heavy'
p866
(dp867
g735
(dp868
g724
(dp869
I800
(dp870
g724
(dp871
g741
g398
sssssg724
(dp872
g724
(dp873
I800
(dp874
g724
(dp875
g741
g491
ssssssS'Palace Script MT'
p876
(dp877
g724
(dp878
g724
(dp879
I400
(dp880
g724
(dp881
g741
g477
ssssssS'MV Boli'
p882
(dp883
g724
(dp884
g724
(dp885
I400
(dp886
g724
(dp887
g741
g72
ssssssS'Modern No. 20'
p888
(dp889
g724
(dp890
g724
(dp891
I400
(dp892
g724
(dp893
g741
g315
ssssssS'Perpetua'
p894
(dp895
g735
(dp896
g724
(dp897
I400
(dp898
g724
(dp899
g741
g223
sssI700
(dp900
g724
(dp901
g741
g687
sssssg724
(dp902
g724
(dp903
I400
(dp904
g724
(dp905
g741
g487
sssI700
(dp906
g724
(dp907
g741
g713
ssssssS'Keysight Sans Light'
p908
(dp909
g735
(dp910
g724
(dp911
I200
(dp912
g724
(dp913
g741
g667
sssssg724
(dp914
g724
(dp915
I200
(dp916
g724
(dp917
g741
g288
ssssssS'Sylfaen'
p918
(dp919
g724
(dp920
g724
(dp921
I400
(dp922
g724
(dp923
g741
g120
ssssssS'Kunstler Script'
p924
(dp925
g724
(dp926
g724
(dp927
I400
(dp928
g724
(dp929
g741
g146
ssssssS'NI Vision'
p930
(dp931
g724
(dp932
g724
(dp933
I400
(dp934
g724
(dp935
g741
g467
ssssssS'Rockwell Extra Bold'
p936
(dp937
g724
(dp938
g724
(dp939
I700
(dp940
g724
(dp941
g741
g669
ssssssS'Dubai'
p942
(dp943
g724
(dp944
g724
(dp945
I400
(dp946
g724
(dp947
g741
g536
sssI700
(dp948
g724
(dp949
g741
g708
ssssssS'KaiTi'
p950
(dp951
g724
(dp952
g724
(dp953
I400
(dp954
g724
(dp955
g741
g21
ssssssS'Papyrus'
p956
(dp957
g724
(dp958
g724
(dp959
I400
(dp960
g724
(dp961
g741
g426
ssssssS'Bookman Old Style'
p962
(dp963
g735
(dp964
g724
(dp965
I400
(dp966
g724
(dp967
g741
g296
sssI700
(dp968
g724
(dp969
g741
g707
sssssg724
(dp970
g724
(dp971
I400
(dp972
g724
(dp973
g741
g558
sssI700
(dp974
g724
(dp975
g741
g257
ssssssS'Bell MT'
p976
(dp977
g735
(dp978
g724
(dp979
I400
(dp980
g724
(dp981
g741
g655
sssssg724
(dp982
g724
(dp983
I400
(dp984
g724
(dp985
g741
g415
sssI700
(dp986
g724
(dp987
g741
g710
ssssssS'Webdings'
p988
(dp989
g724
(dp990
g724
(dp991
I400
(dp992
g724
(dp993
g741
g485
ssssssS'Segoe UI Historic'
p994
(dp995
g724
(dp996
g724
(dp997
I400
(dp998
g724
(dp999
g741
g59
ssssssS'Verdana'
p1000
(dp1001
g735
(dp1002
g724
(dp1003
I400
(dp1004
g724
(dp1005
g741
g111
sssI700
(dp1006
g724
(dp1007
g741
g65
sssssg724
(dp1008
g724
(dp1009
I400
(dp1010
g724
(dp1011
g741
g509
sssI700
(dp1012
g724
(dp1013
g741
g259
ssssssS'Lucida Sans'
p1014
(dp1015
g735
(dp1016
g724
(dp1017
I400
(dp1018
g724
(dp1019
g741
g152
sssI700
(dp1020
g724
(dp1021
g741
g580
sssssg724
(dp1022
g724
(dp1023
I400
(dp1024
g724
(dp1025
g741
g404
sssI700
(dp1026
g724
(dp1027
g741
g624
ssssssS'Segoe UI Semibold'
p1028
(dp1029
g735
(dp1030
g724
(dp1031
I400
(dp1032
g724
(dp1033
g741
g7
sssssg724
(dp1034
g724
(dp1035
I400
(dp1036
g724
(dp1037
g741
g42
ssssssS'Harrington'
p1038
(dp1039
g724
(dp1040
g724
(dp1041
I400
(dp1042
g724
(dp1043
g741
g349
ssssssS'Gill Sans Ultra Bold'
p1044
(dp1045
g724
(dp1046
g724
(dp1047
I700
(dp1048
g724
(dp1049
g741
g416
ssssssS'Mistral'
p1050
(dp1051
g724
(dp1052
g724
(dp1053
I400
(dp1054
g724
(dp1055
g741
g525
ssssssS'Candara Light'
p1056
(dp1057
g735
(dp1058
g724
(dp1059
I200
(dp1060
g724
(dp1061
g741
g493
sssssg724
(dp1062
g724
(dp1063
I200
(dp1064
g724
(dp1065
g741
g375
ssssssS'Vivaldi'
p1066
(dp1067
g735
(dp1068
g724
(dp1069
I400
(dp1070
g724
(dp1071
g741
g555
ssssssS'MS Reference Sans Serif'
p1072
(dp1073
g724
(dp1074
g724
(dp1075
I400
(dp1076
g724
(dp1077
g741
g304
ssssssS'Berlin Sans FB'
p1078
(dp1079
g724
(dp1080
g724
(dp1081
I400
(dp1082
g724
(dp1083
g741
g385
sssI700
(dp1084
g724
(dp1085
g741
g554
ssssssS'Courier New'
p1086
(dp1087
g735
(dp1088
g724
(dp1089
I400
(dp1090
g724
(dp1091
g741
g193
sssI700
(dp1092
g724
(dp1093
g741
g261
sssssg724
(dp1094
g724
(dp1095
I400
(dp1096
g724
(dp1097
g741
g5
sssI700
(dp1098
g724
(dp1099
g741
g290
ssssssS'LiSu'
p1100
(dp1101
g724
(dp1102
g724
(dp1103
I400
(dp1104
g724
(dp1105
g741
g685
ssssssS'Rage Italic'
p1106
(dp1107
g735
(dp1108
g724
(dp1109
I400
(dp1110
g724
(dp1111
g741
g565
ssssssS'Agency FB'
p1112
(dp1113
g724
(dp1114
g724
(dp1115
I400
(dp1116
g724
(dp1117
g741
g607
sssI700
(dp1118
g724
(dp1119
g741
g448
ssssssS'Eras Bold ITC'
p1120
(dp1121
g724
(dp1122
g724
(dp1123
I700
(dp1124
g724
(dp1125
g741
g664
ssssssS'Old English Text MT'
p1126
(dp1127
g724
(dp1128
g724
(dp1129
I400
(dp1130
g724
(dp1131
g741
g649
ssssssS'Broadway'
p1132
(dp1133
g724
(dp1134
g724
(dp1135
I400
(dp1136
g724
(dp1137
g741
g722
ssssssS'Bookshelf Symbol 7'
p1138
(dp1139
g724
(dp1140
g724
(dp1141
I400
(dp1142
g724
(dp1143
g741
g654
ssssssS'STXingkai'
p1144
(dp1145
g724
(dp1146
g724
(dp1147
I400
(dp1148
g724
(dp1149
g741
g596
ssssssS'Franklin Gothic Book'
p1150
(dp1151
g735
(dp1152
g724
(dp1153
I400
(dp1154
g724
(dp1155
g741
g408
sssssg724
(dp1156
g724
(dp1157
I400
(dp1158
g724
(dp1159
g741
g334
ssssssS'Impact'
p1160
(dp1161
g724
(dp1162
g724
(dp1163
I400
(dp1164
g724
(dp1165
g741
g157
ssssssS'Copperplate Gothic Light'
p1166
(dp1167
g724
(dp1168
g724
(dp1169
I200
(dp1170
g724
(dp1171
g741
g373
ssssssS'Wingdings 3'
p1172
(dp1173
g724
(dp1174
g724
(dp1175
I400
(dp1176
g724
(dp1177
g741
g263
ssssssS'Segoe UI Black'
p1178
(dp1179
g735
(dp1180
g724
(dp1181
I400
(dp1182
g724
(dp1183
g741
g18
sssssg724
(dp1184
g724
(dp1185
I400
(dp1186
g724
(dp1187
g741
g287
ssssssS'Snap ITC'
p1188
(dp1189
g724
(dp1190
g724
(dp1191
I400
(dp1192
g724
(dp1193
g741
g605
ssssssS'Franklin Gothic Demi'
p1194
(dp1195
g735
(dp1196
g724
(dp1197
I600
(dp1198
g724
(dp1199
g741
g452
sssssg724
(dp1200
g724
(dp1201
I600
(dp1202
g724
(dp1203
g741
g475
ssssssS'Microsoft New Tai Lue'
p1204
(dp1205
g724
(dp1206
g724
(dp1207
I400
(dp1208
g724
(dp1209
g741
g431
sssI700
(dp1210
g724
(dp1211
g741
g501
ssssssS'Forte'
p1212
(dp1213
g724
(dp1214
g724
(dp1215
I400
(dp1216
g724
(dp1217
g741
g591
ssssssS'DengXian Light'
p1218
(dp1219
g724
(dp1220
g724
(dp1221
I400
(dp1222
g724
(dp1223
g741
g377
ssssssS'Arial Black'
p1224
(dp1225
g724
(dp1226
g724
(dp1227
I900
(dp1228
g724
(dp1229
g741
g247
ssssssS'Gigi'
p1230
(dp1231
g724
(dp1232
g724
(dp1233
I400
(dp1234
g724
(dp1235
g741
g419
ssssssS'Rockwell Condensed'
p1236
(dp1237
g724
(dp1238
g724
(dp1239
I400
(dp1240
g739
(dp1241
g741
g626
sssI700
(dp1242
g739
(dp1243
g741
g329
ssssssS'Wingdings'
p1244
(dp1245
g724
(dp1246
g724
(dp1247
I400
(dp1248
g724
(dp1249
g741
g164
ssssssS'Arial Rounded MT Bold'
p1250
(dp1251
g724
(dp1252
g724
(dp1253
I700
(dp1254
g724
(dp1255
g741
g97
ssssssS'Segoe UI'
p1256
(dp1257
g735
(dp1258
g724
(dp1259
I400
(dp1260
g724
(dp1261
g741
g71
sssI700
(dp1262
g724
(dp1263
g741
g27
sssssg724
(dp1264
g724
(dp1265
I400
(dp1266
g724
(dp1267
g741
g135
sssI700
(dp1268
g724
(dp1269
g741
g48
ssssssS'Segoe UI Variable'
p1270
(dp1271
g724
(dp1272
g724
(dp1273
I400
(dp1274
g724
(dp1275
g741
g546
ssssssS'Bauhaus 93'
p1276
(dp1277
g724
(dp1278
g724
(dp1279
I400
(dp1280
g724
(dp1281
g741
g420
ssssssS'STCaiyun'
p1282
(dp1283
g724
(dp1284
g724
(dp1285
I400
(dp1286
g724
(dp1287
g741
g521
ssssssS'Lucida Sans Unicode'
p1288
(dp1289
g724
(dp1290
g724
(dp1291
I400
(dp1292
g724
(dp1293
g741
g170
ssssssS'Poor Richard'
p1294
(dp1295
g724
(dp1296
g724
(dp1297
I400
(dp1298
g724
(dp1299
g741
g718
ssssssS'Gill Sans MT'
p1300
(dp1301
g735
(dp1302
g724
(dp1303
I400
(dp1304
g724
(dp1305
g741
g379
sssI700
(dp1306
g724
(dp1307
g741
g367
sssssg724
(dp1308
g724
(dp1309
I400
(dp1310
g724
(dp1311
g741
g648
sssI700
(dp1312
g724
(dp1313
g741
g362
ssssssS'Segoe Print'
p1314
(dp1315
g724
(dp1316
g724
(dp1317
I400
(dp1318
g724
(dp1319
g741
g176
sssI700
(dp1320
g724
(dp1321
g741
g182
ssssssS'Britannic Bold'
p1322
(dp1323
g724
(dp1324
g724
(dp1325
I700
(dp1326
g724
(dp1327
g741
g297
ssssssS'HoloLens MDL2 Assets'
p1328
(dp1329
g724
(dp1330
g724
(dp1331
I400
(dp1332
g724
(dp1333
g741
g674
ssssssS'Centaur'
p1334
(dp1335
g724
(dp1336
g724
(dp1337
I400
(dp1338
g724
(dp1339
g741
g662
ssssssS'Keysight Sans Condensed'
p1340
(dp1341
g735
(dp1342
g724
(dp1343
I400
(dp1344
g739
(dp1345
g741
g472
sssI700
(dp1346
g739
(dp1347
g741
g599
sssssg724
(dp1348
g724
(dp1349
I400
(dp1350
g739
(dp1351
g741
g215
sssI700
(dp1352
g739
(dp1353
g741
g616
ssssssS'STXinwei'
p1354
(dp1355
g724
(dp1356
g724
(dp1357
I400
(dp1358
g724
(dp1359
g741
g342
ssssssS'Cambria'
p1360
(dp1361
g735
(dp1362
g724
(dp1363
I400
(dp1364
g724
(dp1365
g741
g133
sssI700
(dp1366
g724
(dp1367
g741
g67
sssssg724
(dp1368
g724
(dp1369
I700
(dp1370
g724
(dp1371
g741
g9
ssssssS'FangSong'
p1372
(dp1373
g724
(dp1374
g724
(dp1375
I400
(dp1376
g724
(dp1377
g741
g620
ssssssS'Malgun Gothic'
p1378
(dp1379
g724
(dp1380
g724
(dp1381
I400
(dp1382
g724
(dp1383
g741
g218
sssI700
(dp1384
g724
(dp1385
g741
g32
ssssssS'MS Reference Specialty'
p1386
(dp1387
g724
(dp1388
g724
(dp1389
I400
(dp1390
g724
(dp1391
g741
g504
ssssssS'Imprint MT Shadow'
p1392
(dp1393
g724
(dp1394
g724
(dp1395
I400
(dp1396
g724
(dp1397
g741
g549
ssssssS'Berlin Sans FB Demi'
p1398
(dp1399
g724
(dp1400
g724
(dp1401
I700
(dp1402
g724
(dp1403
g741
g561
ssssssS'Ink Free'
p1404
(dp1405
g724
(dp1406
g724
(dp1407
I400
(dp1408
g724
(dp1409
g741
g593
ssssssS'Tw Cen MT Condensed Extra Bold'
p1410
(dp1411
g724
(dp1412
g724
(dp1413
I700
(dp1414
g739
(dp1415
g741
g693
ssssssS'Dubai Medium'
p1416
(dp1417
g724
(dp1418
g724
(dp1419
I500
(dp1420
g724
(dp1421
g741
g640
ssssssS'Microsoft Himalaya'
p1422
(dp1423
g724
(dp1424
g724
(dp1425
I400
(dp1426
g724
(dp1427
g741
g52
ssssssS'Malgun Gothic Semilight'
p1428
(dp1429
g724
(dp1430
g724
(dp1431
I200
(dp1432
g724
(dp1433
g741
g17
ssssssS'Playbill'
p1434
(dp1435
g724
(dp1436
g724
(dp1437
I400
(dp1438
g724
(dp1439
g741
g671
ssssssS'Harlow Solid Italic'
p1440
(dp1441
g735
(dp1442
g724
(dp1443
I400
(dp1444
g724
(dp1445
g741
g705
ssssssS'Marlett'
p1446
(dp1447
g724
(dp1448
g724
(dp1449
I400
(dp1450
g724
(dp1451
g741
g81
ssssssS'Keysight Sans Light Condensed'
p1452
(dp1453
g735
(dp1454
g724
(dp1455
I200
(dp1456
g739
(dp1457
g741
g657
sssssg724
(dp1458
g724
(dp1459
I200
(dp1460
g739
(dp1461
g741
g619
ssssssS'Footlight MT Light'
p1462
(dp1463
g724
(dp1464
g724
(dp1465
I200
(dp1466
g724
(dp1467
g741
g99
ssssssS'Segoe UI Emoji'
p1468
(dp1469
g724
(dp1470
g724
(dp1471
I400
(dp1472
g724
(dp1473
g741
g91
ssssssS'Nirmala UI Semilight'
p1474
(dp1475
g724
(dp1476
g724
(dp1477
I200
(dp1478
g724
(dp1479
g741
g127
ssssssS'Calibri Light'
p1480
(dp1481
g735
(dp1482
g724
(dp1483
I200
(dp1484
g724
(dp1485
g741
g327
sssssg724
(dp1486
g724
(dp1487
I200
(dp1488
g724
(dp1489
g741
g44
ssssssS'Century Gothic'
p1490
(dp1491
g735
(dp1492
g724
(dp1493
I400
(dp1494
g724
(dp1495
g741
g698
sssI700
(dp1496
g724
(dp1497
g741
g673
sssssg724
(dp1498
g724
(dp1499
I400
(dp1500
g724
(dp1501
g741
g480
sssI700
(dp1502
g724
(dp1503
g741
g553
ssssssS'Viner Hand ITC'
p1504
(dp1505
g724
(dp1506
g724
(dp1507
I400
(dp1508
g724
(dp1509
g741
g354
ssssssS'Microsoft PhagsPa'
p1510
(dp1511
g724
(dp1512
g724
(dp1513
I400
(dp1514
g724
(dp1515
g741
g86
sssI700
(dp1516
g724
(dp1517
g741
g260
ssssssS'Bradley Hand ITC'
p1518
(dp1519
g724
(dp1520
g724
(dp1521
I400
(dp1522
g724
(dp1523
g741
g644
ssssssS'Calisto MT'
p1524
(dp1525
g735
(dp1526
g724
(dp1527
I400
(dp1528
g724
(dp1529
g741
g268
sssI700
(dp1530
g724
(dp1531
g741
g701
sssssg724
(dp1532
g724
(dp1533
I400
(dp1534
g724
(dp1535
g741
g292
sssI700
(dp1536
g724
(dp1537
g741
g423
ssssssS'Eras Light ITC'
p1538
(dp1539
g724
(dp1540
g724
(dp1541
I200
(dp1542
g724
(dp1543
g741
g339
ssssssS'Segoe UI Symbol'
p1544
(dp1545
g724
(dp1546
g724
(dp1547
I400
(dp1548
g724
(dp1549
g741
g603
ssssssS'MS Outlook'
p1550
(dp1551
g724
(dp1552
g724
(dp1553
I400
(dp1554
g724
(dp1555
g741
g630
ssssssS'Microsoft Uighur'
p1556
(dp1557
g724
(dp1558
g724
(dp1559
I400
(dp1560
g724
(dp1561
g741
g464
sssI700
(dp1562
g724
(dp1563
g741
g311
ssssssS'Segoe Script'
p1564
(dp1565
g724
(dp1566
g724
(dp1567
I400
(dp1568
g724
(dp1569
g741
g214
sssI700
(dp1570
g724
(dp1571
g741
g396
ssssssS'Candara'
p1572
(dp1573
g735
(dp1574
g724
(dp1575
I400
(dp1576
g724
(dp1577
g741
g357
sssI700
(dp1578
g724
(dp1579
g741
g606
sssssg724
(dp1580
g724
(dp1581
I400
(dp1582
g724
(dp1583
g741
g665
sssI700
(dp1584
g724
(dp1585
g741
g721
ssssssS'Parchment'
p1586
(dp1587
g724
(dp1588
g724
(dp1589
I400
(dp1590
g724
(dp1591
g741
g568
ssssssS'Lucida Sans Typewriter'
p1592
(dp1593
S'oblique'
p1594
(dp1595
g724
(dp1596
I400
(dp1597
g724
(dp1598
g741
g318
sssI700
(dp1599
g724
(dp1600
g741
g308
sssssg724
(dp1601
g724
(dp1602
I400
(dp1603
g724
(dp1604
g741
g473
sssI700
(dp1605
g724
(dp1606
g741
g672
ssssssS'STHupo'
p1607
(dp1608
g724
(dp1609
g724
(dp1610
I400
(dp1611
g724
(dp1612
g741
g264
ssssssS'STXihei'
p1613
(dp1614
g724
(dp1615
g724
(dp1616
I400
(dp1617
g724
(dp1618
g741
g692
ssssssS'Bodoni MT Black'
p1619
(dp1620
g735
(dp1621
g724
(dp1622
I900
(dp1623
g724
(dp1624
g741
g118
sssssg724
(dp1625
g724
(dp1626
I900
(dp1627
g724
(dp1628
g741
g604
ssssssS'Engravers MT'
p1629
(dp1630
g724
(dp1631
g724
(dp1632
I400
(dp1633
g724
(dp1634
g741
g356
ssssssS'STFangsong'
p1635
(dp1636
g724
(dp1637
g724
(dp1638
I400
(dp1639
g724
(dp1640
g741
g238
ssssssS'Lucida Handwriting'
p1641
(dp1642
g735
(dp1643
g724
(dp1644
I400
(dp1645
g724
(dp1646
g741
g666
ssssssS'Goudy Stout'
p1647
(dp1648
g724
(dp1649
g724
(dp1650
I400
(dp1651
g724
(dp1652
g741
g614
ssssssS'Niagara Solid'
p1653
(dp1654
g724
(dp1655
g724
(dp1656
I400
(dp1657
g724
(dp1658
g741
g479
ssssssS'Pristina'
p1659
(dp1660
g724
(dp1661
g724
(dp1662
I400
(dp1663
g724
(dp1664
g741
g668
ssssssS'Garamond'
p1665
(dp1666
g735
(dp1667
g724
(dp1668
I400
(dp1669
g724
(dp1670
g741
g468
sssssg724
(dp1671
g724
(dp1672
I400
(dp1673
g724
(dp1674
g741
g489
sssI700
(dp1675
g724
(dp1676
g741
g407
ssssssS'Corbel'
p1677
(dp1678
g735
(dp1679
g724
(dp1680
I400
(dp1681
g724
(dp1682
g741
g441
sssI700
(dp1683
g724
(dp1684
g741
g393
sssssg724
(dp1685
g724
(dp1686
I400
(dp1687
g724
(dp1688
g741
g249
sssI700
(dp1689
g724
(dp1690
g741
g82
ssssssS'Book Antiqua'
p1691
(dp1692
g735
(dp1693
g724
(dp1694
I400
(dp1695
g724
(dp1696
g741
g506
sssI700
(dp1697
g724
(dp1698
g741
g140
sssssg724
(dp1699
g724
(dp1700
I400
(dp1701
g724
(dp1702
g741
g500
sssI700
(dp1703
g724
(dp1704
g741
g410
ssssssS'Brush Script MT'
p1705
(dp1706
g735
(dp1707
g724
(dp1708
I400
(dp1709
g724
(dp1710
g741
g411
ssssssS'Symbol'
p1711
(dp1712
g724
(dp1713
g724
(dp1714
I400
(dp1715
g724
(dp1716
g741
g496
ssssssS'High Tower Text'
p1717
(dp1718
g735
(dp1719
g724
(dp1720
I400
(dp1721
g724
(dp1722
g741
g634
sssssg724
(dp1723
g724
(dp1724
I400
(dp1725
g724
(dp1726
g741
g437
ssssssS'Constantia'
p1727
(dp1728
g735
(dp1729
g724
(dp1730
I400
(dp1731
g724
(dp1732
g741
g222
sssI700
(dp1733
g724
(dp1734
g741
g68
sssssg724
(dp1735
g724
(dp1736
I400
(dp1737
g724
(dp1738
g741
g229
sssI700
(dp1739
g724
(dp1740
g741
g113
ssssssS'Segoe Fluent Icons'
p1741
(dp1742
g724
(dp1743
g724
(dp1744
I400
(dp1745
g724
(dp1746
g741
g150
ssssssS'Ravie'
p1747
(dp1748
g724
(dp1749
g724
(dp1750
I400
(dp1751
g724
(dp1752
g741
g691
ssssssS'Gill Sans MT Condensed'
p1753
(dp1754
g724
(dp1755
g724
(dp1756
I400
(dp1757
g739
(dp1758
g741
g641
ssssssS'Leelawadee UI Semilight'
p1759
(dp1760
g724
(dp1761
g724
(dp1762
I400
(dp1763
g724
(dp1764
g741
g661
ssssssS'Wingdings 2'
p1765
(dp1766
g724
(dp1767
g724
(dp1768
I400
(dp1769
g724
(dp1770
g741
g190
ssssssS'Informal Roman'
p1771
(dp1772
g724
(dp1773
g724
(dp1774
I500
(dp1775
g724
(dp1776
g741
g499
ssssssS'Algerian'
p1777
(dp1778
g724
(dp1779
g724
(dp1780
I400
(dp1781
g724
(dp1782
g741
g600
ssssssS'STZhongsong'
p1783
(dp1784
g724
(dp1785
g724
(dp1786
I400
(dp1787
g724
(dp1788
g741
g459
ssssssS'Maiandra GD'
p1789
(dp1790
g724
(dp1791
g724
(dp1792
I400
(dp1793
g724
(dp1794
g741
g699
ssssssS'Tw Cen MT Condensed'
p1795
(dp1796
g724
(dp1797
g724
(dp1798
I400
(dp1799
g739
(dp1800
g741
g542
sssI700
(dp1801
g739
(dp1802
g741
g703
ssssssS'Edwardian Script ITC'
p1803
(dp1804
g724
(dp1805
g724
(dp1806
I400
(dp1807
g724
(dp1808
g741
g608
ssssssS'FZYaoTi'
p1809
(dp1810
g724
(dp1811
g724
(dp1812
I400
(dp1813
g724
(dp1814
g741
g432
ssssssS'Keysight Sans'
p1815
(dp1816
g735
(dp1817
g724
(dp1818
I400
(dp1819
g724
(dp1820
g741
g303
sssI700
(dp1821
g724
(dp1822
g741
g639
sssssg724
(dp1823
g724
(dp1824
I400
(dp1825
g724
(dp1826
g741
g149
sssI700
(dp1827
g724
(dp1828
g741
g443
ssssssS'OCR A Extended'
p1829
(dp1830
g724
(dp1831
g724
(dp1832
I400
(dp1833
g724
(dp1834
g741
g463
ssssssS'MT Extra'
p1835
(dp1836
g724
(dp1837
g724
(dp1838
I400
(dp1839
g724
(dp1840
g741
g442
ssssssS'Wide Latin'
p1841
(dp1842
g724
(dp1843
g724
(dp1844
I400
(dp1845
S'expanded'
p1846
(dp1847
g741
g424
ssssssS'STSong'
p1848
(dp1849
g724
(dp1850
g724
(dp1851
I400
(dp1852
g724
(dp1853
g741
g205
ssssssS'Tempus Sans ITC'
p1854
(dp1855
g724
(dp1856
g724
(dp1857
I400
(dp1858
g724
(dp1859
g741
g439
ssssssS'FZShuTi'
p1860
(dp1861
g724
(dp1862
g724
(dp1863
I400
(dp1864
g724
(dp1865
g741
g696
ssssssS'Franklin Gothic Medium Cond'
p1866
(dp1867
g724
(dp1868
g724
(dp1869
I500
(dp1870
g739
(dp1871
g741
g548
ssssssS'Jokerman'
p1872
(dp1873
g724
(dp1874
g724
(dp1875
I400
(dp1876
g724
(dp1877
g741
g271
ssssssS'Century'
p1878
(dp1879
g724
(dp1880
g724
(dp1881
I400
(dp1882
g724
(dp1883
g741
g646
ssssssS'Niagara Engraved'
p1884
(dp1885
g724
(dp1886
g724
(dp1887
I400
(dp1888
g724
(dp1889
g741
g622
ssssssS'Magneto'
p1890
(dp1891
g724
(dp1892
g724
(dp1893
I700
(dp1894
g724
(dp1895
g741
g541
ssssssS'STLiti'
p1896
(dp1897
g724
(dp1898
g724
(dp1899
I400
(dp1900
g724
(dp1901
g741
g539
ssssssS'Bahnschrift'
p1902
(dp1903
g724
(dp1904
g724
(dp1905
I400
(dp1906
g724
(dp1907
g741
g96
ssssssS'Franklin Gothic Medium'
p1908
(dp1909
g735
(dp1910
g724
(dp1911
I500
(dp1912
g724
(dp1913
g741
g98
sssssg724
(dp1914
g724
(dp1915
I500
(dp1916
g724
(dp1917
g741
g151
ssssssS'Tw Cen MT'
p1918
(dp1919
g735
(dp1920
g724
(dp1921
I400
(dp1922
g724
(dp1923
g741
g185
sssI700
(dp1924
g724
(dp1925
g741
g686
sssssg724
(dp1926
g724
(dp1927
I400
(dp1928
g724
(dp1929
g741
g323
sssI700
(dp1930
g724
(dp1931
g741
g714
ssssssS'Blackadder ITC'
p1932
(dp1933
g724
(dp1934
g724
(dp1935
I900
(dp1936
g724
(dp1937
g741
g358
ssssssS'Lucida Bright'
p1938
(dp1939
g735
(dp1940
g724
(dp1941
I400
(dp1942
g724
(dp1943
g741
g632
sssI700
(dp1944
g724
(dp1945
g741
g695
sssssg724
(dp1946
g724
(dp1947
I400
(dp1948
g724
(dp1949
g741
g589
sssI700
(dp1950
g724
(dp1951
g741
g636
ssssssS'Tahoma'
p1952
(dp1953
g724
(dp1954
g724
(dp1955
I400
(dp1956
g724
(dp1957
g741
g540
sssI700
(dp1958
g724
(dp1959
g741
g53
ssssssS'Microsoft Yi Baiti'
p1960
(dp1961
g724
(dp1962
g724
(dp1963
I400
(dp1964
g724
(dp1965
g741
g254
ssssssS'Sitka Text'
p1966
(dp1967
g735
(dp1968
g724
(dp1969
I400
(dp1970
g724
(dp1971
g741
g638
sssssg724
(dp1972
g724
(dp1973
I400
(dp1974
g724
(dp1975
g741
g711
ssssssS'STKaiti'
p1976
(dp1977
g724
(dp1978
g724
(dp1979
I400
(dp1980
g724
(dp1981
g741
g128
ssssssS'Palatino Linotype'
p1982
(dp1983
g735
(dp1984
g724
(dp1985
I400
(dp1986
g724
(dp1987
g741
g216
sssI700
(dp1988
g724
(dp1989
g741
g10
sssssg724
(dp1990
g724
(dp1991
I400
(dp1992
g724
(dp1993
g741
g592
sssI700
(dp1994
g724
(dp1995
g741
g328
ssssssS'Gadugi'
p1996
(dp1997
g724
(dp1998
g724
(dp1999
I400
(dp2000
g724
(dp2001
g741
g136
sssI700
(dp2002
g724
(dp2003
g741
g571
ssssssS'Lucida Calligraphy'
p2004
(dp2005
g735
(dp2006
g724
(dp2007
I400
(dp2008
g724
(dp2009
g741
g712
ssssssS'Castellar'
p2010
(dp2011
g724
(dp2012
g724
(dp2013
I400
(dp2014
g724
(dp2015
g741
g409
ssssssS'Script MT Bold'
p2016
(dp2017
g724
(dp2018
g724
(dp2019
I700
(dp2020
g724
(dp2021
g741
g697
ssssssS'Ebrima'
p2022
(dp2023
g724
(dp2024
g724
(dp2025
I400
(dp2026
g724
(dp2027
g741
g56
sssI700
(dp2028
g724
(dp2029
g741
g175
ssssssS'Segoe UI Light'
p2030
(dp2031
g735
(dp2032
g724
(dp2033
I400
(dp2034
g724
(dp2035
g741
g207
sssssg724
(dp2036
g724
(dp2037
I400
(dp2038
g724
(dp2039
g741
g198
ssssssS'YouYuan'
p2040
(dp2041
g724
(dp2042
g724
(dp2043
I400
(dp2044
g724
(dp2045
g741
g595
ssssssS'Freestyle Script'
p2046
(dp2047
g724
(dp2048
g724
(dp2049
I400
(dp2050
g724
(dp2051
g741
g683
ssssssS'Georgia'
p2052
(dp2053
g735
(dp2054
g724
(dp2055
I400
(dp2056
g724
(dp2057
g741
g46
sssI700
(dp2058
g724
(dp2059
g741
g117
sssssg724
(dp2060
g724
(dp2061
I400
(dp2062
g724
(dp2063
g741
g208
sssI700
(dp2064
g724
(dp2065
g741
g618
ssssssS'Lucida Console'
p2066
(dp2067
g724
(dp2068
g724
(dp2069
I400
(dp2070
g724
(dp2071
g741
g166
ssssssS'Gloucester MT Extra Condensed'
p2072
(dp2073
g724
(dp2074
g724
(dp2075
I400
(dp2076
g739
(dp2077
g741
g250
ssssssS'Leelawadee'
p2078
(dp2079
g724
(dp2080
g724
(dp2081
I400
(dp2082
g724
(dp2083
g741
g429
sssI700
(dp2084
g724
(dp2085
g741
g656
ssssssS'Bernard MT Condensed'
p2086
(dp2087
g724
(dp2088
g724
(dp2089
I400
(dp2090
g739
(dp2091
g741
g169
ssssssS'Curlz MT'
p2092
(dp2093
g724
(dp2094
g724
(dp2095
I400
(dp2096
g724
(dp2097
g741
g293
ssssssS'Felix Titling'
p2098
(dp2099
g724
(dp2100
g724
(dp2101
I400
(dp2102
g724
(dp2103
g741
g212
ssssssS'Baskerville Old Face'
p2104
(dp2105
g724
(dp2106
g724
(dp2107
I400
(dp2108
g724
(dp2109
g741
g278
ssssssS'Leelawadee UI'
p2110
(dp2111
g724
(dp2112
g724
(dp2113
I400
(dp2114
g724
(dp2115
g741
g598
sssI700
(dp2116
g724
(dp2117
g741
g335
ssssssS'Vladimir Script'
p2118
(dp2119
g724
(dp2120
g724
(dp2121
I400
(dp2122
g724
(dp2123
g741
g651
ssssssS'Corbel Light'
p2124
(dp2125
g735
(dp2126
g724
(dp2127
I200
(dp2128
g724
(dp2129
g741
g165
sssssg724
(dp2130
g724
(dp2131
I200
(dp2132
g724
(dp2133
g741
g447
ssssssS'Segoe UI Semilight'
p2134
(dp2135
g735
(dp2136
g724
(dp2137
I400
(dp2138
g724
(dp2139
g741
g469
sssssg724
(dp2140
g724
(dp2141
I400
(dp2142
g724
(dp2143
g741
g531
ssssssS'Rockwell'
p2144
(dp2145
g735
(dp2146
g724
(dp2147
I400
(dp2148
g724
(dp2149
g741
g438
sssI700
(dp2150
g724
(dp2151
g741
g623
sssssg724
(dp2152
g724
(dp2153
I400
(dp2154
g724
(dp2155
g741
g512
sssI700
(dp2156
g724
(dp2157
g741
g650
ssssssS'SimSun-ExtB'
p2158
(dp2159
g724
(dp2160
g724
(dp2161
I400
(dp2162
g724
(dp2163
g741
g301
ssssssS'Monotype Corsiva'
p2164
(dp2165
g724
(dp2166
g724
(dp2167
I400
(dp2168
g724
(dp2169
g741
g629
ssssssS'SimHei'
p2170
(dp2171
g724
(dp2172
g724
(dp2173
I400
(dp2174
g724
(dp2175
g741
g232
ssssssS'Onyx'
p2176
(dp2177
g724
(dp2178
g724
(dp2179
I400
(dp2180
g724
(dp2181
g741
g73
ssssssS'Consolas'
p2182
(dp2183
g735
(dp2184
g724
(dp2185
I400
(dp2186
g724
(dp2187
g741
g199
sssI700
(dp2188
g724
(dp2189
g741
g435
sssssg724
(dp2190
g724
(dp2191
I400
(dp2192
g724
(dp2193
g741
g60
sssI700
(dp2194
g724
(dp2195
g741
g191
ssssssS'Kristen ITC'
p2196
(dp2197
g724
(dp2198
g724
(dp2199
I400
(dp2200
g724
(dp2201
g741
g635
ssssssS'Bodoni MT'
p2202
(dp2203
g735
(dp2204
g724
(dp2205
I400
(dp2206
g724
(dp2207
g741
g197
sssI700
(dp2208
g724
(dp2209
g741
g523
sssssg724
(dp2210
g724
(dp2211
I400
(dp2212
g724
(dp2213
g741
g676
sssI700
(dp2214
g724
(dp2215
g741
g395
ssssssS'Myanmar Text'
p2216
(dp2217
g724
(dp2218
g724
(dp2219
I400
(dp2220
g724
(dp2221
g741
g433
sssI700
(dp2222
g724
(dp2223
g741
g322
ssssssS'Cooper Black'
p2224
(dp2225
g724
(dp2226
g724
(dp2227
I900
(dp2228
g724
(dp2229
g741
g246
ssssssS'Times New Roman'
p2230
(dp2231
g735
(dp2232
g724
(dp2233
I500
(dp2234
g724
(dp2235
g741
g346
sssI700
(dp2236
g724
(dp2237
g741
g241
sssssg724
(dp2238
g724
(dp2239
I500
(dp2240
g724
(dp2241
g741
g189
sssI700
(dp2242
g724
(dp2243
g741
g124
ssssssS'Eras Medium ITC'
p2244
(dp2245
g724
(dp2246
g724
(dp2247
I500
(dp2248
g724
(dp2249
g741
g126
ssssssS'Dubai Light'
p2250
(dp2251
g724
(dp2252
g724
(dp2253
I200
(dp2254
g724
(dp2255
g741
g418
ssssssS'Californian FB'
p2256
(dp2257
g735
(dp2258
g724
(dp2259
I400
(dp2260
g724
(dp2261
g741
g560
sssssg724
(dp2262
g724
(dp2263
I400
(dp2264
g724
(dp2265
g741
g332
sssI700
(dp2266
g724
(dp2267
g741
g300
ssssssS'Colonna MT'
p2268
(dp2269
g724
(dp2270
g724
(dp2271
I400
(dp2272
g724
(dp2273
g741
g309
ssssssS'Goudy Old Style'
p2274
(dp2275
g735
(dp2276
g724
(dp2277
I400
(dp2278
g724
(dp2279
g741
g519
sssssg724
(dp2280
g724
(dp2281
I400
(dp2282
g724
(dp2283
g741
g642
sssI700
(dp2284
g724
(dp2285
g741
g337
ssssssS'Gill Sans Ultra Bold Condensed'
p2286
(dp2287
g724
(dp2288
g724
(dp2289
I700
(dp2290
g739
(dp2291
g741
g274
ssssssS'Copperplate Gothic Bold'
p2292
(dp2293
g724
(dp2294
g724
(dp2295
I700
(dp2296
g724
(dp2297
g741
g517
ssssssS'Sans Serif Collection'
p2298
(dp2299
g724
(dp2300
g724
(dp2301
I400
(dp2302
g724
(dp2303
g741
g195
ssssssS'Chiller'
p2304
(dp2305
g724
(dp2306
g724
(dp2307
I400
(dp2308
g724
(dp2309
g741
g226
ssssssS'Microsoft Tai Le'
p2310
(dp2311
g724
(dp2312
g724
(dp2313
I400
(dp2314
g724
(dp2315
g741
g141
sssI700
(dp2316
g724
(dp2317
g741
g11
ssssssS'DengXian'
p2318
(dp2319
g724
(dp2320
g724
(dp2321
I400
(dp2322
g724
(dp2323
g741
g700
sssI700
(dp2324
g724
(dp2325
g741
g585
ssssssS'French Script MT'
p2326
(dp2327
g724
(dp2328
g724
(dp2329
I400
(dp2330
g724
(dp2331
g741
g511
ssssssS'Microsoft Sans Serif'
p2332
(dp2333
g724
(dp2334
g724
(dp2335
I400
(dp2336
g724
(dp2337
g741
g177
ssssssS'Gabriola'
p2338
(dp2339
g724
(dp2340
g724
(dp2341
I400
(dp2342
g724
(dp2343
g741
g684
ssssssS'Showcard Gothic'
p2344
(dp2345
g724
(dp2346
g724
(dp2347
I400
(dp2348
g724
(dp2349
g741
g578
ssssssS'Juice ITC'
p2350
(dp2351
g724
(dp2352
g724
(dp2353
I400
(dp2354
g724
(dp2355
g741
g401
ssssssS'Nirmala UI'
p2356
(dp2357
g724
(dp2358
g724
(dp2359
I400
(dp2360
g724
(dp2361
g741
g282
sssI700
(dp2362
g724
(dp2363
g741
g719
ssssssS'Javanese Text'
p2364
(dp2365
g724
(dp2366
g724
(dp2367
I400
(dp2368
g724
(dp2369
g741
g19
ssssssS'Lucida Fax'
p2370
(dp2371
g735
(dp2372
g724
(dp2373
I400
(dp2374
g724
(dp2375
g741
g490
sssI700
(dp2376
g724
(dp2377
g741
g370
sssssg724
(dp2378
g724
(dp2379
I400
(dp2380
g724
(dp2381
g741
g378
sssI700
(dp2382
g724
(dp2383
g741
g131
ssssssS'Comic Sans MS'
p2384
(dp2385
g735
(dp2386
g724
(dp2387
I400
(dp2388
g724
(dp2389
g741
g80
sssI700
(dp2390
g724
(dp2391
g741
g502
sssssg724
(dp2392
g724
(dp2393
I400
(dp2394
g724
(dp2395
g741
g399
sssI700
(dp2396
g724
(dp2397
g741
g313
ssssssS'Mongolian Baiti'
p2398
(dp2399
g724
(dp2400
g724
(dp2401
I400
(dp2402
g724
(dp2403
g741
g366
ssssssS'Century Schoolbook'
p2404
(dp2405
g735
(dp2406
g724
(dp2407
I400
(dp2408
g724
(dp2409
g741
g610
sssI700
(dp2410
g724
(dp2411
g741
g143
sssssg724
(dp2412
g724
(dp2413
I400
(dp2414
g724
(dp2415
g741
g611
sssI700
(dp2416
g724
(dp2417
g741
g403
ssssssS'Bodoni MT Poster Compressed'
p2418
(dp2419
g724
(dp2420
g724
(dp2421
I400
(dp2422
g724
(dp2423
g741
g715
sssssssb.